
 Start  Stop   Length Name               Class

 00000H 0A513H 0A514H _TEXT              CODE
 0A514H 0A514H 00000H mscpc_TEXT         CODE
 0A514H 0A514H 00000H kh_TEXT            CODE
 0A514H 0AAECH 005D9H VDU_TEXT           CODE
 0AAEDH 0AAEDH 00000H VARS_TEXT          CODE
 0AAEDH 0AAEDH 00000H TEXT1_TEXT         CODE
 0AAEDH 0AAEDH 00000H TEXT_TEXT          CODE
 0AAEDH 0CCB0H 021C4H TERM_TEXT          CODE
 0CCB1H 0FF4FH 0329FH SEDT_TEXT          CODE
 0FF50H 11135H 011E6H REGEXP_TEXT        CODE
 11136H 1129FH 0016AH REGSUB_TEXT        CODE
 112A0H 12C01H 01962H KEY_TEXT           CODE
 12C02H 12FBCH 003BBH FILE_TEXT          CODE
 12FBDH 15B46H 02B8AH EDIT_TEXT          CODE
 15B47H 18273H 0272DH ENT_TEXT           CODE
 18274H 1AC39H 029C6H COMD_TEXT          CODE
 1AC3AH 1EC4FH 04016H COMC_TEXT          CODE
 1EC50H 1FDE8H 01199H COMB_TEXT          CODE
 1FDE9H 234D8H 036F0H COMA_TEXT          CODE
 234D9H 24C60H 01788H COM_TEXT           CODE
 24C61H 265D2H 01972H BUF_TEXT           CODE
 265D3H 2721AH 00C48H _TEXTC             CODE
 27220H 27220H 00000H _FARDATA           FAR_DATA
 27220H 27220H 00000H _FARBSS            FAR_BSS
 27220H 27220H 00000H _OVERLAY_          OVRINFO
 27220H 27220H 00000H _1STUB_            STUBSEG
 27220H 2C18DH 04F6EH _DATA              DATA
 2C18EH 2C18FH 00002H _CVTSEG            DATA
 2C190H 2C195H 00006H _SCNSEG            DATA
 2C196H 2C196H 00000H _CONST             CONST
 2C196H 2C1B9H 00024H _INIT_             INITDATA
 2C1BAH 2C1BAH 00000H _INITEND_          INITDATA
 2C1BAH 2C1BFH 00006H _EXIT_             EXITDATA
 2C1C0H 2C1C0H 00000H _EXITEND_          EXITDATA
 2C1C0H 34A9FH 088E0H _BSS               BSS
 34AA0H 34AA0H 00000H _BSSEND            BSSEND
 34AA0H 34B1FH 00080H _STACK             STACK

  Address         Publics by Name

 0000:39D1       operator delete(void far*)
 0000:39E7       operator delete[](void far*)
 0000:3AB2       operator new(unsigned int)
 0000:3A84       set_new_handler(void(far*)())
 0000:6782       set_terminate(void(far*)())
 0000:6876       set_unexpected(void(far*)())
 265D:0003       string::string(const string far&)
 265D:00EC       string::string(const char far*)
 265D:0308       string::~string()
 265D:038E       string::assert_element(unsigned int) const
 265D:044C       string::assert_index(unsigned int) const
 2722:4F08       string::case_sensitive
 2722:4F12       string::freeboard
 2722:4F0E       string::initial_capac
 265D:0A97       string::initial_capacity(unsigned int)
 265D:0ADE       string::max_waste(unsigned int)
 2722:4F0A       string::paranoid_check
 2722:4F10       string::resize_inc
 265D:0AB4       string::resize_increment(unsigned int)
 265D:0A40       string::set_case_sensitive(int)
 265D:0A5D       string::set_paranoid_check(int)
 2722:4F0C       string::skip_white
 265D:0A7A       string::skip_whitespace(int)
 0000:6778       terminate()
 265D:05C5       tstringref::tstringref(const char far*,unsigned int,const char far*,unsigned int,unsigned int)
 265D:06AB       tstringref::~tstringref()
 265D:0779       tstringref::check_freeboard()
 265D:07E1       tstringref::grow_to(unsigned int)
 265D:070B       tstringref::reserve(unsigned int)
 265D:0843       tstringref::round_capacity(unsigned int)
 265D:0882       tstringref::splice(unsigned int,unsigned int,const char far*,unsigned int)
 265D:050A       tsubstring::assert_element(unsigned int) const
 0000:9B39       typeinfo::operator =(const typeinfo far&)
 0000:9ACB       typeinfo::typeinfo(const typeinfo far&)
 0000:9B48       typeinfo::~typeinfo()
 0000:9B7C       typeinfo::operator ==(const typeinfo far&) const
 0000:9BA2       typeinfo::operator !=(const typeinfo far&) const
 0000:9BC3       typeinfo::before(const typeinfo far&) const
 0000:9C3B       typeinfo::name() const
 0000:686D       unexpected()
 0000:6A01       xalloc::xalloc(const string far&,unsigned int)
 0000:6A80       xalloc::raise()
 0000:6E7F       xmsg::operator =(const xmsg far&)
 0000:6CF1       xmsg::xmsg(const xmsg far&)
 0000:6C26       xmsg::xmsg(const string far&)
 0000:6D9C       xmsg::~xmsg()
 0000:6E08       xmsg::raise()
 0000:3A19       xnew_handler()
 0000:85F1       _catchcleanup()
 0000:7E99       _rethrowexception(unsigned int,unsigned char far*)
 0000:7E40       _throwexception(void far*,void far*,void far*,void far*,unsigned int,unsigned int,unsigned int,unsigned char far*)
 0000:9F1E       __dynamiccast(void far*,void far*,void far*,void far*,int)
 0000:6907       __getpolymorphicdtc(void far*,unsigned int)
 0000:695B       __getpolymorphicdtcfar(void far*,unsigned int)
 0000:9C55       __gettypeinfo(void far*,void far*,void far*,void far*)
 0000:A10B       __refdestructorcount()
 0000:A111       __refexceptionlist()
 0000:9AB9       __throwexceptionname()
 0000:9A99       __throwfilename()
 0000:9AAB       __throwlinenumber()
 2722:0000       DATASEG@
 0000:026D       DGROUP@
 0000:371F       F_LDIV@
 0000:372E       F_LMOD@
 0000:3726       F_LUDIV@
 0000:3736       F_LUMOD@
 0000:37CD       F_LXLSH@
 0000:42A4       F_PADD@
 0000:42D3       F_PSUB@
 0000:0658       INT24
 0000:08D1       INT9
 0000:371F       LDIV@
 0000:372E       LMOD@
 0000:3726       LUDIV@
 0000:3736       LUMOD@
 0000:37CD       LXLSH@
 0000:0279       Mouse_AX
 0000:0277       Mouse_SP
 0000:0275       Mouse_SS
 0000:371C       N_LDIV@
 0000:372B       N_LMOD@
 0000:3723       N_LUDIV@
 0000:3733       N_LUMOD@
 0000:37CA       N_LXLSH@
 0000:37EB       N_LXMUL@
 0000:42A1       N_PADD@
 0000:4301       N_PCMP@
 0000:42D0       N_PSUB@
 0000:4322       N_SCOPY@
 0000:42A4       PADD@
 0000:42D3       PSUB@
 0000:4419       _abort
 2722:057A       _Abort_Print_Txt
 15B4:0379       _Abs_Char
 15B4:07DE       _Abs_Line
 0000:1791       _access
 112A:010E       _Adj_Del
 1FDE:1711       _Adj_Lines
 112A:00D4       _Adj_Pad
 234D:16BA       _Adj_Points
 1827:0F05       _Adj_Tabs
 1AC3:0A7A       _Advance
 2722:058E       _Already_Learning_Txt
 2722:4C62       _AmPm
 0000:07AC       _ANYCHR
 0000:078A       _ANYDIR
 0000:07C6       _ANYEXT
 2722:736E       _Any_Changes
 2722:02A6       _Append_It
 2722:0512       _April_Txt
 0CCB:2744       _Argerror
 2722:247A       _Arg_Error_Txt
 2722:7360       _Arg_Length
 1AC3:0C40       _Ascii
 2722:25E6       _Ascii_Value_Txt
 0000:5ECC       _asctime
 0000:442D       _atexit
 0000:5E1C       _atime
 0000:3999       _atoi
 0000:3924       _atol
 2722:00E8       _Attab
 2722:511E       _Attr
 2722:7362       _At_End
 2722:0522       _August_Txt
 2722:708A       _Auto_Count
 2722:020E       _Auto_Margin
 2722:0228       _Auto_Save
 2722:708C       _Auto_Saved
 2722:022A       _Auto_Warn
 15B4:01DD       _A_Char
 1AC3:066A       _A_New_Line
 15B4:1C3D       _A_Par
 15B4:1F02       _A_Sentence
 15B4:152A       _A_Word
 234D:13AB       _Backto_This
 1AC3:0A8E       _Backup
 2722:25EE       _Bad_Argument_Txt
 2722:257E       _Bad_Context_Cursor_Txt
 2722:05CA       _Bad_Entity_Txt
 2722:24F6       _Bad_Key_Num_Txt
 2722:24F2       _Bad_Key_Txt
 2722:04DA       _Bad_Request_Txt
 2722:25F2       _Bad_Window_Pos_Txt
 2722:024E       _Batch_Mode
 0000:4387       _bdos
 15B4:26DD       _Beg_Error
 2722:8D12       _Beg_Line
 2722:8D0A       _Beg_Pos
 2722:9092       _Beg_Region
 2722:0298       _Bell_Level
 2722:2482       _Bel_Conf_Synt_Txt
 1827:08C7       _Blind_Tab_To
 2722:029C       _Blk_Mode
 1FDE:17C2       _Blk_Rem_It
 24C6:018B       _Blockread
 24C6:0203       _Blockwrite
 2722:0582       _Block_Append_Txt
 2722:228A       _Block_Mode_Txt
 2722:2288       _Block_Pos
 2722:25C2       _Block_Sel_Txt
 15B4:0858       _Bottom
 2722:00D0       _Bracket
 2722:718C       _Buffers
 2722:05C6       _Buffer_Beginning_Txt
 2722:05BE       _Buffer_End_Txt
 2722:24FE       _Buffer_Err_Txt
 2722:2272       _Buffer_Pos
 2722:70C4       _Buffer_Stack
 2722:2266       _Buffer_Txt
 2722:2502       _Buffer_Wr_Err_Txt
 2722:9252       _Buf_Lines
 24C6:139A       _B_B_Get
 24C6:1504       _B_B_Search
 24C6:120E       _B_Copy
 24C6:0E23       _B_Del
 24C6:07BB       _B_Flush
 24C6:0ECE       _B_Get
 24C6:0F14       _B_Get_N
 24C6:0FE9       _B_Get_S
 24C6:08B0       _B_Goto
 24C6:09FA       _B_Init
 24C6:0ABD       _B_Modify
 24C6:0B63       _B_Put
 24C6:0C0F       _B_Put_S
 24C6:113C       _B_Rem
 24C6:0DA6       _B_Replace
 24C6:0D04       _B_Repl_S
 24C6:0A0D       _B_Reset
 24C6:081B       _B_Rewind
 234D:13ED       _B_Save
 24C6:1417       _B_Search
 15B4:1BA4       _B_Skip_Spaces
 2722:0216       _Call_Color
 2722:0222       _Call_Model
 2722:0214       _Call_Type
 1FDE:0F8D       _Cancel_Edit_Region
 2722:2596       _Cannot_Create_Context_Txt
 2722:25A2       _Cannot_Create_File_Txt
 2722:2586       _Cannot_Undo_Txt
 2722:0242       _Caps_Lock
 2722:22A2       _Case_Ins_Txt
 2722:229C       _Case_Pos
 2722:023C       _Case_Sensitive
 2722:229E       _Case_Sen_Txt
 1AC3:26CD       _Case_Toggle
 2722:0210       _CC_Enable
 2722:023A       _CC_Flag
 2722:224A       _Cc_Mess
 1827:11A9       _Center_Line
 1AC3:2721       _Change_Window
 15B4:01FA       _Char
 2722:72FA       _Character
 112A:17E0       _Char_Rep
 0000:10BE       _chdir
 234D:09AC       _Check_CC
 0AAE:1C9B       _Check_Comb
 24C6:188A       _Check_EMS
 1AC3:30BD       _Check_Point
 15B4:00FF       _Chk_CRLF_B
 15B4:016E       _Chk_CRLF_BF
 15B4:001C       _Chk_CRLF_F
 15B4:0090       _Chk_CRLF_FB
 1FDE:28A5       _Chk_EL
 0000:17AB       _chmod
 2722:0927       _Chr_N
 2722:0926       _Chr_Y
 1827:1A23       _Ch_Case
 1827:2419       _Ch_Edt_Style
 1827:1A89       _Ch_It
 1827:1A45       _Ch_Lower
 1827:1A67       _Ch_Upper
 1FDE:32C7       _Ch_Window
 0000:05ED       _Clear_Mouse
 1FDE:0FBF       _Clear_Region
 0000:17F8       _close
 0000:03F3       _Clr43
 0000:0A71       _CLRNUMLOCK
 1FDE:352D       _Clr_Changes
 12FB:1F79       _Clr_Error
 0AAE:12E2       _Clr_Screen
 1AC3:0064       _Clr_Typeahead
 12FB:23F1       _Clr_Working
 0CCB:2759       _Cnf_Error
 15B4:266F       _Cnt_B_Lines
 15B4:2649       _Cnt_F_Lines
 2722:00CA       _Color
 2722:24A6       _Color_Txt
 2722:226C       _Col_Arg_Pos
 2722:25EA       _Col_Ascii_Value_Txt
 2722:226A       _Col_Pos
 2722:225E       _Col_Txt
 2722:B9B6       _Com
 2722:026E       _Comb_Defs
 2722:9466       _Comb_Tab
 2722:057E       _Command_File_Txt
 2722:6413       _Com_Arg
 2722:6412       _Com_Char
 2722:7338       _Com_Direction
 2722:709A       _Com_End
 1FDE:349B       _Com_Error
 234D:0102       _Com_Parse
 2722:39FA       _Com_Tab
 2722:0240       _Conf_Error
 2722:247E       _Conf_Synt_Txt
 0AAE:1786       _Conin
 2722:257A       _Context_Match_Txt
 1AC3:2E1C       _Context_Save
 2722:0258       _Control_Display
 2722:24B6       _Copyright_Txt
 2722:9256       _Count
 2722:925E       _Counter
 1AC3:2DB8       _Counter_Absolute_Value
 1FDE:1169       _Counter_Add
 1FDE:100D       _Counter_Get
 1AC3:2D78       _Counter_Increment
 2722:735E       _Counter_Index
 1AC3:2D1C       _Counter_Put
 1AC3:2CDE       _Counter_Set
 0000:2E44       _creat
 2722:0502       _Crit_Fail_Txt
 24C6:008C       _Crit_Int
 2722:04FE       _Crit_Retry_Txt
 0000:5EFD       _ctime
 2722:A5EA       _Current
 2722:0248       _Cursor_Free
 1AC3:2705       _Cursor_Free_Toggle
 1AC3:2944       _Curs_Bottom
 1AC3:29F6       _Curs_Middle
 1AC3:28B0       _Curs_Top
 2722:72EE       _Cur_Attributes
 2722:733A       _Cur_Buffer
 2722:735C       _Cur_Direction
 0000:02AD       _C_Bscan
 24C6:0001       _C_Move
 1AC3:1D0B       _C_Read_I
 1AC3:1CD5       _C_Read_L
 0000:027B       _C_Scan
 1AC3:3075       _C_Write
 2722:04D6       _Data_Error_Txt
 2722:0532       _December_Txt
 2722:5098       _DEC_Mode
 2722:0290       _Def_Direction
 2722:021A       _Def_Font
 1AC3:2399       _Def_Function
 2722:22B2       _Def_Ins_Txt
 1AC3:2187       _Def_Key
 1AC3:212F       _Def_Key_Alpha
 1AC3:2067       _Def_Key_Function
 1AC3:215B       _Def_Key_G_Alpha
 1AC3:2171       _Def_Key_G_Key
 1AC3:2145       _Def_Key_Key
 1AC3:2369       _Def_Key_Number
 2722:22B6       _Def_Noins_Txt
 2722:22B0       _Def_Pos
 2722:C39A       _Del
 1AC3:3042       _Delete_The_Context
 15B4:2706       _Delim_Error
 1827:23ED       _Del_Append
 1AC3:0990       _Del_It
 0AAE:146A       _Del_To_End_Line
 2722:249A       _Device_Txt
 12FB:1C48       _Diag
 1FDE:158C       _Diag_Error
 2722:7358       _Direction
 2722:24D6       _Dir_Load_Txt
 0000:0504       _Dir_Out
 2722:2274       _Dir_Pos
 2722:25AE       _Dir_Save_Txt
 0000:0543       _Dir_Set
 2722:0220       _Dir_Video
 2722:00FA       _Display_Column
 1EC5:00A8       _Display_Help
 2722:24A2       _Display_Txt
 2722:8D1A       _Dl_Pointers
 2722:7342       _Dl_Positions
 2722:0212       _Doreturn
 0000:611C       _dostounix
 2722:04FA       _Dos_Error_Txt
 2722:24FA       _Double_Def_Txt
 2722:025E       _Down_Type
 12FB:202D       _Do_Command
 2722:024C       _Do_Debug
 1827:0930       _Do_Fill
 1EC5:0224       _Do_Help
 0AAE:14E9       _Do_Mapping
 1AC3:0774       _Do_New_Line
 2722:0296       _Do_Shift
 2722:04CE       _Drive_N_Ready_Txt
 2722:250A       _Dsk_Full_Err_Txt
 2722:5C11       _Dsk_Rec
 0000:115A       _dup
 0000:111F       _dup2
 2722:00FC       _D_Border
 2722:02AE       _D_Next
 12FB:002D       _Editor
 1AC3:1A06       _Edit_File
 2722:05C2       _Edit_Region_Begin_Txt
 2722:05BA       _Edit_Region_End_Txt
 2722:021E       _EGA43
 2722:054E       _Empty_Line_Txt
 2722:0094       _EMS_Buffering
 2722:4FF4       _EMS_Handle
 2722:0098       _EMS_Top
 1AC3:204E       _End_Com
 15B4:26AA       _End_Error
 1AC3:2DFA       _End_Learn
 2722:8D16       _End_Line
 1AC3:0F69       _End_Mark
 2722:92C6       _End_Points
 2722:8D0E       _End_Pos
 2722:9096       _End_Region
 2722:25AA       _End_Region_Txt
 2722:726E       _Enhanced
 2722:7096       _Ent_Char
 2722:925A       _Ent_Count
 2722:735A       _Ent_Direction
 15B4:271D       _Ent_Error
 2722:37B8       _Ent_Tab
 0000:2E62       _eof
 112A:1911       _Erase_Del
 2722:007E       _errno
 12FB:18F3       _Error
 2722:72F6       _Err_Display
 2722:7098       _Err_Flag
 1AC3:272B       _Err_Level
 0AAE:2120       _Esc_Error
 1FDE:14A1       _Execute_Function
 1FDE:1393       _Execute_Key
 2722:0288       _Executing
 2722:22D2       _Executing_Txt
 112A:0147       _Exec_Key
 0000:44BD       _exit
 1AC3:01F0       _Exit_Sedt
 2722:37B4       _Exp
 112A:0220       _Expand_Com
 2722:025A       _Expand_Tabs
 234D:09EC       _Ex_Command
 2722:7324       _Ex_Count
 2722:028C       _Ex_Debth
 15B4:2516       _Ex_Entity
 1827:1F7E       _Ex_File
 2722:72FC       _Ex_Function
 2722:7310       _Ex_Index
 1827:27C3       _Ex_Learn
 2722:0252       _E_Type
 0000:3E2F       _farfree
 0000:3F43       _farmalloc
 0000:40A7       _farrealloc
 24C6:0051       _Fatalerror
 0000:1824       _fclose
 2722:050A       _February_Txt
 0000:18E4       _fflush
 0000:2FBB       _fgetc
 0000:30B4       _fgetchar
 12FB:162F       _Fildir
 2722:02B8       _File_Arguments
 1AC3:19E4       _File_Edit
 1827:1F2C       _File_Execute
 1AC3:0CFC       _File_Get
 2722:254E       _File_Not_Found_Txt
 2722:51AC       _File_Protection
 2722:5274       _File_Reserved
 2722:05DE       _File_Reserved_Txt
 1AC3:1F46       _File_Save
 2722:225A       _File_Txt
 1AC3:2011       _File_Write
 12FB:156C       _Filjnam
 1827:0824       _Fill
 12FB:075F       _Fill_Rest
 12FB:0C03       _Fill_Screen
 12FB:1373       _Filnam
 12FB:1472       _Filtyp
 2722:2486       _Fil_Buff_Txt
 15B4:087A       _Find
 12FB:29F1       _Find_Env
 12FB:2982       _Find_From
 1AC3:0874       _Find_Margin
 15B4:08AE       _Find_Next
 12FB:2A7E       _Find_Path
 2722:6813       _Find_Str
 15B4:093D       _Find_This
 2722:0232       _Firmware
 2722:020A       _First_Line
 2722:029E       _Float_Cursor
 0000:19B5       _flushall
 1AC3:2B42       _Font_Larger
 1AC3:2B47       _Font_Smaller
 0000:1C77       _fopen
 2722:256A       _Forget_Buffer_Txt
 2722:5B3C       _Format_Line
 2722:2276       _Forward_Txt
 0000:1CB0       _fprintf
 0000:2632       _fputc
 0000:27BD       _fputchar
 0000:1CD0       _fputs
 0000:1E40       _fread
 0000:3E2F       _free
 2722:02AC       _Free_List
 2722:22BA       _Free_Pos
 2722:22BC       _Free_Txt
 0000:1F63       _fseek
 0000:1FE5       _ftell
 2722:750A       _Funcs
 2722:72F2       _Function
 2722:25E2       _Fun_Create_Error
 0000:233E       _fwrite
 12C0:00BE       _F_close
 12C0:02B2       _F_getc
 12C0:0124       _F_gets
 12C0:0002       _F_open
 12C0:0363       _F_putc
 1FDE:098C       _f_puti
 12C0:027A       _F_read
 12C0:0330       _F_write
 2722:04F6       _General_Txt
 1AC3:09D9       _Get
 12FB:1DB2       _Get16
 0000:0A0E       _GETALT
 0000:083A       _GETCAPS
 0000:1193       _getcurdir
 0000:23D7       _getcwd
 0000:5A54       _getdate
 0000:0705       _GETDIR
 0000:0EF3       _getdisk
 0000:4844       _getenv
 0000:08B2       _GETEQ
 0000:0769       _GETEXT
 0AAE:184E       _Getkbd
 0AAE:1A0F       _Getkey
 0000:0A2D       _GETNUM
 0000:0748       _GETSCAN
 0000:09EF       _GETSHIFT
 0000:5A6B       _gettime
 0000:067A       _GETTYP
 0000:4523       _getvect
 1827:2403       _Get_Append
 1AC3:0C73       _Get_Arg
 2722:060E       _Get_Buf_Txt
 2722:0606       _Get_Char_Txt
 234D:0009       _Get_Count
 1FDE:12C5       _Get_Counter_Index
 24C6:18EC       _Get_EMS
 234D:15DC       _Get_Entity
 1AC3:0A29       _Get_E_Type
 2722:0602       _Get_File_Txt
 1827:219B       _Get_Key
 2722:060A       _Get_Line_Txt
 15B4:17F7       _Get_Mark
 0000:0449       _Get_Mode
 1AC3:2678       _Get_Ruler
 1827:0734       _Get_Spaces
 0A51:05AF       _Get_Type
 1827:07B1       _Get_Word
 0000:5E73       _gmtime
 2722:72F4       _Gold
 2722:25DA       _Gold_Txt
 2722:00CC       _Gotmouse
 234D:1274       _Goto_This
 2722:0096       _Got_EMS
 2722:05EE       _Group_Txt
 2722:0922       _Grow_Txt
 2722:7082       _Hdr_Block
 2722:708E       _Hdr_Case
 2722:0218       _Hdr_Changes
 2722:7506       _Hdr_Col
 2722:7072       _Hdr_Direction
 2722:7080       _Hdr_Do_Shift
 2722:707A       _Hdr_Executing
 2722:024A       _Hdr_Free
 2722:7090       _Hdr_Ins_Defs
 2722:7074       _Hdr_Learning
 2722:74FE       _Hdr_Line
 2722:7502       _Hdr_Lines
 2722:7070       _Hdr_Mods
 2722:7092       _Hdr_Reg
 2722:7078       _Hdr_Replace
 2722:707E       _Hdr_Shift
 2722:707C       _Hdr_Xpand
 1EC5:01DE       _Help
 0AAE:1681       _Helpfile
 2722:6C13       _Help_File
 2722:7366       _Help_Level
 2722:6C63       _Help_Levels
 2722:255A       _Help_Menu_Txt
 2722:945A       _Help_Pos
 2722:72F0       _His_Attributes
 2722:0276       _His_Col
 2722:0274       _His_Line
 2722:7340       _Home
 0000:03A3       _IBMcout
 0000:0326       _IBMcursor
 0000:0314       _IBMpage
 0000:035E       _IBMscrdown
 0000:033D       _IBMscrup
 0000:037F       _IBMsout
 2722:2546       _Illegal_ASCII_Txt
 2722:0536       _Illegal_Char_Txt
 2722:252A       _Illegal_Keystroke_Txt
 2722:2556       _Illegal_Mark_Txt
 2722:258E       _Illegal_Ruler_Txt
 2722:24E6       _Illegal_Token_Txt
 2722:2542       _Illegal_Window_Txt
 2722:24C2       _Ill_Ruler_Txt
 12FB:16FC       _Include_File
 2722:25B2       _Incomplete_Command_Txt
 2722:02CA       _Indent
 1827:20CB       _Ind_Decrease
 1827:20F6       _Ind_Increase
 1827:20B2       _Ind_Set
 2722:533C       _Infile
 0CCB:327C       _Initerror
 24C6:163D       _Init_Buf
 0CCB:1ADE       _Init_Buffer
 1FDE:1783       _Init_Entity
 2722:5BC1       _Init_File
 2722:58BC       _Init_T_String
 1AC3:2546       _Input_Test
 1AC3:18A4       _Insert
 2722:2284       _Insert_Mode_Txt
 112A:13D9       _Ins_A_Key
 12FB:2457       _Ins_Char
 2722:0246       _Ins_Defs
 1AC3:26E9       _Ins_Defs_Toggle
 1AC3:1085       _Ins_Del
 112A:12D7       _Ins_Key
 1FDE:026D       _Ins_String
 2722:00CE       _Int16_Ext
 0000:5218       _int86
 0000:524D       _int86x
 0000:52E7       _intdos
 0000:5319       _intdosx
 24C6:055C       _In_Buf
 2722:7364       _In_Help
 2722:009A       _In_Int24
 2722:025C       _In_Prompt
 2722:D77E       _In_Regs
 0000:368F       _ioctl
 0000:1204       _isatty
 0000:38A8       _itoa
 2722:0506       _January_Txt
 2722:051E       _July_Txt
 2722:051A       _June_Txt
 2722:7076       _Justify
 2722:5096       _KBD_Handle
 2722:249E       _Keyboard_Txt
 2722:5046       _Keyb_File
 2722:4FF6       _Keyb_Name
 2722:009E       _Keyb_Names
 2722:00C8       _Keyb_Type
 0AAE:156A       _Keyfile
 0000:07E9       _KEYREL
 112A:1950       _Key_Addr
 2722:059A       _Key_Create_Txt
 2722:0268       _Key_Defs
 0AAE:2103       _Key_Error
 112A:138A       _Key_Get
 1827:2110       _Key_Load
 1FDE:0FAA       _Key_Mess
 2722:7266       _Key_Number
 2722:9462       _Key_Pointer
 1827:2297       _Key_Save
 2722:945E       _Key_Tab
 2722:05AE       _Last_Mark_Txt
 2722:25F6       _Last_Not_Search_Txt
 2722:259A       _Learned_Input_Txt
 2722:0286       _Learning
 2722:22D0       _Learning_Pos
 2722:22D6       _Learning_Txt
 2722:059E       _Learn_Key_Txt
 2722:0262       _Left_Col
 2722:02CE       _Left_Margin
 2722:053E       _Left_Margin_Txt
 2722:0928       _License_Txt
 15B4:06A2       _Line
 2722:2270       _Line_Arg_Pos
 15B4:19E6       _Line_End
 2722:228E       _Line_Mode_Txt
 2722:226E       _Line_Pos
 2722:2262       _Line_Txt
 2722:7094       _List_Files
 2722:4C32       _LMonth
 2722:72F8       _Ln_Function
 1827:2208       _Load_Key
 1827:26D5       _Load_Learn
 1FDE:2EF9       _Load_Window
 0000:5E90       _localtime
 2722:909E       _Local_Count
 15B4:090F       _Lower_Case
 0000:1219       _lseek
 2722:924A       _Lst_Char_Move
 2722:02B2       _Lst_Cmd
 2722:7272       _Lst_Col
 2722:028E       _Lst_Current
 2722:5394       _Lst_Input
 2722:924E       _Lst_Line_Move
 0000:38F8       _ltoa
 2722:4BE6       _LWeekday
 0CCB:0001       _main
 2722:A5EE       _Main_Buffer
 24C6:0AF5       _Make_Room
 0000:3F39       _malloc
 0AAE:157C       _Mapfile
 2722:0226       _Mapping
 2722:25DE       _Map_Create_Error
 2722:026A       _Map_Defs
 2722:5344       _Map_Ext
 2722:7268       _Map_Index
 2722:95EA       _Map_Tab
 2722:050E       _March_Txt
 2722:02BA       _Margin
 112A:10E9       _Mark_Cursor
 1AC3:0ECA       _Mark_Pos
 15B4:22F4       _Match_Bracket
 2722:2506       _Max_Err_Txt
 2722:25CE       _Max_Func_Txt
 2722:725E       _Max_Length
 2722:021C       _Max_Scroll
 2722:7260       _Max_Width
 2722:0516       _May_Txt
 0000:0C16       _memcmp
 0000:0C3E       _memcpy
 0000:0CFC       _memmove
 0000:0C88       _memset
 24C6:173D       _Mem_Alloc
 2722:0092       _Mem_Buffering
 2722:009C       _Mem_Entries
 2722:02C2       _Mem_Limit
 2722:4434       _Mem_List
 24C6:15FD       _Mem_Return
 2722:063E       _Menu_Abs_Char
 2722:0646       _Menu_Abs_Line
 2722:0886       _Menu_Adj_Tabs
 2722:0632       _Menu_Advance_Txt
 2722:06CA       _Menu_Ascii
 2722:0642       _Menu_Ask_Abs_Char
 2722:064A       _Menu_Ask_Abs_Line
 2722:0666       _Menu_Ask_Char
 2722:066E       _Menu_Ask_Find
 2722:0686       _Menu_Ask_Find_Next
 2722:0676       _Menu_Ask_Line
 2722:065E       _Menu_Ask_Line_End
 2722:067E       _Menu_Ask_Mark
 2722:068E       _Menu_Ask_Page
 2722:0696       _Menu_Ask_Par
 2722:069E       _Menu_Ask_Screen
 2722:06A6       _Menu_Ask_Sentence
 2722:06B2       _Menu_Ask_Vertical
 2722:06BA       _Menu_Ask_Word
 2722:078A       _Menu_A_New_Line
 2722:0636       _Menu_Backup_Txt
 2722:0656       _Menu_Bottom
 2722:0712       _Menu_Cancel_Edit_Region
 2722:08B2       _Menu_Case_Toggle
 2722:06D2       _Menu_Center_Line
 2722:06FA       _Menu_Change_Window
 2722:0662       _Menu_Char
 2722:06CE       _Menu_Check_Point
 2722:06C2       _Menu_Ch_Case
 2722:06C6       _Menu_Ch_Lower
 2722:06F6       _Menu_Ch_Upper
 2722:062A       _Menu_Command_Txt
 2722:06EE       _Menu_Context_Save
 2722:091A       _Menu_Counters
 2722:06DA       _Menu_Counter_Add
 2722:06DE       _Menu_Counter_Get
 2722:06E2       _Menu_Counter_Increment
 2722:06E6       _Menu_Counter_Put
 2722:06EA       _Menu_Counter_Set
 2722:0896       _Menu_Cursor_Free_Toggle
 2722:063A       _Menu_Curs_Bottom_Txt
 2722:06D6       _Menu_Curs_Middle
 2722:06F2       _Menu_Curs_Top
 2722:071A       _Menu_Def_Function
 2722:0752       _Menu_Def_Key_Alpha
 2722:0756       _Menu_Def_Key_Function
 2722:075A       _Menu_Def_Key_G_Alpha
 2722:075E       _Menu_Def_Key_G_Key
 2722:0762       _Menu_Def_Key_Key
 2722:0766       _Menu_Def_Key_Number
 2722:090E       _Menu_Delete
 2722:0702       _Menu_Del_Append
 2722:06FE       _Menu_Del_It
 2722:090A       _Menu_Display
 2722:077E       _Menu_End_Learn
 2722:070E       _Menu_Err_Level
 2722:0706       _Menu_Execute_Function
 2722:070A       _Menu_Execute_Key
 2722:08FA       _Menu_Exit_Sedt
 2722:0776       _Menu_Ex_Learn
 2722:091E       _Menu_File
 2722:071E       _Menu_File_Edit
 2722:073A       _Menu_File_Execute
 2722:0722       _Menu_File_Get
 2722:072E       _Menu_File_Save
 2722:0736       _Menu_File_Write
 2722:0732       _Menu_Fill
 2722:066A       _Menu_Find
 2722:0682       _Menu_Find_Next
 2722:0726       _Menu_Font_Larger
 2722:072A       _Menu_Font_Smaller
 2722:0912       _Menu_Formatting
 2722:0742       _Menu_Get
 2722:073E       _Menu_Get_Append
 2722:067A       _Menu_Get_Mark
 2722:0746       _Menu_Get_Ruler
 2722:074A       _Menu_Help
 2722:076A       _Menu_Ind_Decrease
 2722:076E       _Menu_Ind_Increase
 2722:0782       _Menu_Ind_Set
 2722:074E       _Menu_Insert
 2722:0916       _Menu_Insertion
 2722:08B6       _Menu_Ins_Defs_Toggle
 2722:0672       _Menu_Line
 2722:065A       _Menu_Line_End
 2722:0772       _Menu_Load_Key
 2722:077A       _Menu_Load_Learn
 2722:0786       _Menu_Mark_Pos
 2722:0652       _Menu_Match_Bracket
 2722:062E       _Menu_Move_Txt
 2722:06BE       _Menu_Next_Mark
 2722:07A6       _Menu_Open_Line
 2722:0906       _Menu_Options
 2722:07B2       _Menu_Other_Window
 2722:07A2       _Menu_Out_Error
 2722:07AA       _Menu_Out_Message
 2722:07AE       _Menu_Overstrike_Mode
 2722:068A       _Menu_Page
 2722:0692       _Menu_Par
 2722:08DE       _Menu_Paste
 2722:07BA       _Menu_Past_Load
 2722:07C6       _Menu_Past_Save
 2722:07BE       _Menu_Pop_Changes
 2722:07C2       _Menu_Print
 2722:07CE       _Menu_Push_Changes
 2722:07B6       _Menu_Put_Date
 2722:07CA       _Menu_Put_Time
 2722:08FE       _Menu_Query
 2722:07D2       _Menu_Quit
 2722:087A       _Menu_Q_Spawn
 2722:07DA       _Menu_Redefine_Key
 2722:07DE       _Menu_Refresh
 2722:07E6       _Menu_Remove_Char
 2722:07EA       _Menu_Remove_Help
 2722:07EE       _Menu_Remove_Line
 2722:07F2       _Menu_Remove_Page
 2722:07F6       _Menu_Remove_Par
 2722:07FA       _Menu_Remove_Paste
 2722:07FE       _Menu_Remove_Search
 2722:0802       _Menu_Remove_Sent
 2722:0806       _Menu_Remove_Subs
 2722:0816       _Menu_Remove_Tabs
 2722:080A       _Menu_Remove_Unknown
 2722:080E       _Menu_Remove_Word
 2722:07D6       _Menu_Repl
 2722:0812       _Menu_Reset
 2722:07E2       _Menu_Ruler
 2722:081A       _Menu_Rul_Load
 2722:081E       _Menu_Rul_Save
 2722:087E       _Menu_R_Spawn
 2722:082A       _Menu_Save_Functions
 2722:0826       _Menu_Save_Keys
 2722:085A       _Menu_Sav_Key
 2722:069A       _Menu_Screen
 2722:085E       _Menu_Search_Load
 2722:0836       _Menu_Select
 2722:06AA       _Menu_Sel_Range
 2722:06A2       _Menu_Sentence
 2722:083A       _Menu_Set_Block
 2722:084E       _Menu_Set_Case_Sensitive
 2722:0842       _Menu_Set_Cursor_Free
 2722:083E       _Menu_Set_Direction
 2722:0716       _Menu_Set_Edit_Region
 2722:0852       _Menu_Set_Ins_Defs
 2722:0846       _Menu_Set_Replace
 2722:0866       _Menu_Set_Tabs
 2722:084A       _Menu_Set_Tab_Expand
 2722:0856       _Menu_Shift_In
 2722:0862       _Menu_Shift_Out
 2722:08AA       _Menu_Shift_Toggle
 2722:0822       _Menu_Show_Ascii
 2722:082E       _Menu_Show_Bcast
 2722:0832       _Menu_Show_Column
 2722:0872       _Menu_Show_Version
 2722:0876       _Menu_Spawn
 2722:086A       _Menu_Strip_Trailing
 2722:086E       _Menu_Subs
 2722:078E       _Menu_Subs_Next
 2722:0882       _Menu_Tab
 2722:08AE       _Menu_Tab_Toggle
 2722:089A       _Menu_Test_Input
 2722:088A       _Menu_Tog_Block
 2722:088E       _Menu_Tog_Control
 2722:08A2       _Menu_Tog_Cursor
 2722:0892       _Menu_Tog_Direction
 2722:089E       _Menu_Tog_Marks
 2722:08A6       _Menu_Tog_Ruler
 2722:064E       _Menu_Top
 2722:08C2       _Menu_Undo
 2722:08BA       _Menu_Und_Char
 2722:08BE       _Menu_Und_Line
 2722:08D2       _Menu_Und_Par
 2722:08CE       _Menu_Und_Pg
 2722:08DA       _Menu_Und_Sen
 2722:08E2       _Menu_Und_Unknown
 2722:08E6       _Menu_Und_Word
 2722:08CA       _Menu_Update_Off
 2722:08C6       _Menu_Update_On
 2722:08D6       _Menu_Upd_Screen
 2722:06AE       _Menu_Vertical
 2722:08EE       _Menu_Window
 2722:0796       _Menu_Window_Changed
 2722:079A       _Menu_Window_Cycle
 2722:08EA       _Menu_Window_Grow
 2722:08F2       _Menu_Window_Move
 2722:079E       _Menu_Window_Not_Used
 2722:08F6       _Menu_Window_Shrink
 2722:0792       _Menu_Window_Used
 2722:06B6       _Menu_Word
 2722:0902       _Menu_Zero
 12FB:1AC5       _Message
 2722:05B6       _Missing_Match_Txt
 0000:2465       _mktemp
 0000:60B8       _mktime
 2722:22DE       _Modified_Txt
 2722:22DC       _Mod_List_Pos
 2722:22DA       _Mod_Pos
 2722:24AA       _Mono_Txt
 0AAE:2137       _Mouse
 0AAE:00D1       _Mouse_Call
 0AAE:0509       _Mouse_Execute
 0AAE:000D       _Mouse_Int
 2722:011C       _Mouse_OK
 2722:CDD4       _Mouse_Stack
 2722:251A       _Mouse_Toggle_Txt
 2722:251E       _Mouse_Window_Txt
 0000:439B       _movedata
 234D:0E78       _Move_Back
 234D:0AD5       _Move_Entity
 234D:0BA4       _Move_Forward
 24C6:1826       _Move_From_EMS
 1FDE:171F       _Move_Key
 0AAE:142D       _Move_Left
 0AAE:1407       _Move_Right
 24C6:17C2       _Move_To_EMS
 0000:0CAA       _movmem
 2722:02DA       _My_Col
 2722:0278       _My_Line
 2722:02DE       _My_Pos
 0000:02E2       _M_Alloc
 0000:02FD       _M_Free
 0000:057A       _M_Int
 2722:02B0       _M_Next
 0AAE:20E7       _Narrow_Screen
 1FDE:31DD       _Newwindow
 2722:6A13       _New_File
 1AC3:072A       _New_Line
 2722:00C4       _New_Mode
 0AAE:1B4C       _Next_Comb
 2722:0272       _Next_Func
 15B4:18B7       _Next_Mark
 2722:00F8       _Nobak
 2722:22C0       _Nofree_Txt
 2722:020C       _Nosub
 2722:0282       _Not_End
 2722:0612       _Not_Enough_Memory_Txt
 2722:05FE       _Not_Implemented_Txt
 2722:056E       _Not_Search_Txt
 2722:052E       _November_Txt
 2722:05CE       _No_Buffer_Txt
 2722:0552       _No_Command_Txt
 2722:0556       _No_Compec_Txt
 2722:2572       _No_Context_Txt
 2722:2592       _No_Contxt_Name_Txt
 2722:24DE       _No_Delimiter_Txt
 2722:2536       _No_File_Txt
 2722:2566       _No_Help_File_Txt
 2722:24BA       _No_Init_Txt
 2722:24AE       _No_Key_Txt
 2722:24B2       _No_Map_Txt
 2722:05AA       _No_Mark_Txt
 2722:05B2       _No_Match_Txt
 2722:2516       _No_Memory_Txt
 2722:25CA       _No_Messages_Txt
 2722:05A2       _No_Number_Txt
 2722:2582       _No_Output_File_Txt
 2722:04EA       _No_Paper_Txt
 2722:0572       _No_Print_Txt
 2722:05E6       _No_Protection_Change_Txt
 2722:05F6       _No_Reset_Txt
 2722:054A       _No_Right_Margin_Txt
 2722:24BE       _No_Ruler_Txt
 2722:05A6       _No_Sel_Txt
 2722:055A       _No_Spawn_Txt
 2722:05DA       _No_Stat_Txt
 2722:056A       _No_Stderr_Txt
 2722:0566       _No_Stdout_Txt
 2722:2522       _No_Termcap_Txt
 2722:24E2       _No_Token_Txt
 2722:25A6       _No_Window_Txt
 2722:0592       _Null_String_Txt
 2722:052A       _October_Txt
 2722:7368       _Offset
 2722:22CC       _Off_Txt
 2722:0254       _Old_E_Type
 2722:00C6       _Old_Mode
 0000:3196       _open
 1827:2646       _Open_Line
 1AC3:3866       _Open_Window
 0A51:037D       _Opt_Char
 0A51:0301       _Opt_Cursor
 0A51:052C       _Opt_Erase_Line
 0AAE:1459       _Opt_Force_Attributes
 0A51:0194       _Opt_Init
 0A51:0337       _Opt_Move_Cursor
 0AAE:100E       _Opt_Scroll
 0A51:0503       _Opt_String
 2722:909A       _Other_Pos
 2722:05F2       _Other_Txt
 1FDE:008C       _Other_Window
 0000:06A2       _OURKBD
 2722:5340       _Outfile
 2722:509A       _Output
 24C6:027B       _Out_Buf
 0A51:0004       _Out_C
 2722:72EC       _Out_Count
 1FDE:0065       _Out_Error
 2722:05E2       _Out_File_Reserved_Txt
 0A51:0024       _Out_I
 24C6:09CC       _Out_In_Buf
 1827:28D5       _Out_Message
 2722:D78E       _Out_Regs
 0A51:0063       _Out_S
 2722:5ABC       _Out_String
 0A51:0096       _Out_Zap
 2722:CD7E       _Overflow
 1AC3:2613       _Overstrike_Mode
 2722:AFD2       _Pad
 12FB:1D2E       _Pad_Get
 12FB:1CA7       _Pad_Put
 15B4:2176       _Page
 234D:12D2       _Paint_To_This
 15B4:1C0B       _Par
 1AC3:0ADD       _Paste
 2722:058A       _Paste_Create_Txt
 2722:0586       _Paste_File_Txt
 1827:24AB       _Past_Load
 1827:2553       _Past_Save
 0000:0AB3       _pc_enh_keyb
 0000:0ACC       _pc_get_cursor
 0000:0ADF       _pc_sys_type
 0000:2562       _perror
 2722:7262       _Phys_Length
 2722:7264       _Phys_Width
 12FB:1A00       _Plain_Error
 12FB:1B9D       _Plain_Message
 2722:90A6       _Points
 112A:10D4       _Pop
 1AC3:3121       _Pop_Changes
 1FDE:15A3       _Pos_Cursor
 1827:1D5D       _Print
 0000:25F3       _printf
 0000:082A       _PRINT_SCREEN
 112A:10BE       _Push
 1AC3:310C       _Push_Changes
 1827:089F       _Put_A_Char
 0A51:0314       _Put_Char
 12FB:2937       _Put_Count
 1827:28F8       _Put_Date
 0CCB:2558       _Put_I
 234D:159D       _Put_Out
 1AC3:1811       _Put_Rep
 1FDE:0009       _Put_Time
 1FDE:1357       _Query
 1AC3:0428       _Quit
 1827:17C4       _Q_Spawn
 0000:5181       _raise
 0000:8020       _RaiseException
 0000:178B       _read
 2722:25D6       _Reading_Help_Txt
 112A:14C3       _Readkeys
 112A:1598       _Readmaps
 12FB:04CC       _Readruler
 0CCB:0645       _Read_Config
 1AC3:1D3D       _Read_Context
 2722:2576       _Read_Context_Txt
 12FB:27CE       _Read_Count
 2722:04F2       _Read_Fault_Txt
 12FB:12A3       _Read_File
 2722:7436       _Read_Only
 0000:40A0       _realloc
 0CCB:257A       _Rec_I
 1AC3:336F       _Redefine_Key
 1827:13FC       _Refresh
 1AC3:3879       _Refresh_Window
 0FF5:01EF       _reg
 0FF5:06B1       _regatom
 0FF5:03B8       _regbranch
 0FF5:09F0       _regc
 0FF5:0000       _regcomp
 15B4:0007       _regerror
 0FF5:0B47       _regexec
 0FF5:0A1A       _reginsert
 0FF5:0D52       _regmatch
 0FF5:1189       _regnext
 0FF5:0992       _regnode
 0FF5:0B0B       _regoptail
 0FF5:0470       _regpiece
 0FF5:10A5       _regrepeat
 1113:0006       _regsub
 0FF5:0A91       _regtail
 0FF5:0CAD       _regtry
 2722:22AC       _Reg_Off_Txt
 2722:22A8       _Reg_On_Txt
 2722:22A6       _Reg_Pos
 2722:0256       _Reg_Search
 2722:2512       _Rel_Bad_Txt
 2722:733C       _Rel_First
 2722:733E       _Rel_Last
 2722:0230       _Remember
 1AC3:2B98       _Remove_Char
 1AC3:2BA9       _Remove_Help
 1AC3:2BBA       _Remove_Line
 1AC3:2BCB       _Remove_Page
 1AC3:2BDC       _Remove_Par
 1AC3:2BED       _Remove_Paste
 1AC3:2BFE       _Remove_Search
 1AC3:2C0F       _Remove_Sent
 1AC3:2C20       _Remove_Subs
 1FDE:0D6D       _Remove_Tabs
 1AC3:2C31       _Remove_Unknown
 1AC3:2C42       _Remove_Word
 1AC3:034F       _Rem_Autosave
 112A:006A       _Rem_Del
 1FDE:1C73       _Rem_It
 112A:0000       _Rem_Pad
 0000:346C       _rename
 2722:0122       _Rep
 1827:1483       _Repaint
 1827:1D0F       _Repl
 2722:028A       _Replace_Mode
 2722:2280       _Replace_Mode_Txt
 2722:227E       _Replace_Pos
 2722:05D6       _Replace_This_Txt
 2722:6613       _Rep_Str
 2722:02BC       _Requested_Margin
 2722:02B6       _Reservation
 2722:05EA       _Reserved_Txt
 1AC3:240A       _Reset
 24C6:1687       _Reset_Buf
 0000:0636       _Reset_Crit
 0AAE:1370       _Reset_Screen
 0AAE:1FF6       _Reset_Term
 2722:05FA       _Reset_Txt
 2722:59BC       _Reset_T_String
 12FB:000D       _Reset_Width
 0000:0A94       _RESNUMLOCK
 24C6:194D       _Return_EMS
 2722:055E       _Return_To_Sedt_Txt
 2722:7084       _Return_Value
 2722:227A       _Reverse_Txt
 2722:02D2       _Right_Margin
 2722:0546       _Right_Margin_Txt
 1827:0004       _Ruler
 2722:0596       _Ruler_Syntax_Txt
 1FDE:00A7       _Rul_Load
 1FDE:02E8       _Rul_Save
 2722:4FA0       _Run_From
 1827:1844       _R_Spawn
 1FDE:2380       _Save_Auto
 2722:4FF2       _Save_Caps
 2722:256E       _Save_Changes_Txt
 2722:022C       _Save_Context
 1FDE:073D       _Save_Functions
 1FDE:03C7       _Save_Keys
 2722:7190       _Save_Left
 2722:7192       _Save_Length
 2722:709C       _Save_Stack
 1AC3:2E56       _Save_The_Context
 2722:718E       _Save_Top
 2722:7194       _Save_Width
 1827:23B8       _Sav_Key
 1AC3:000A       _Sav_Set
 1FDE:2905       _Sav_Window
 2722:726C       _Scancode
 2722:026C       _Scan_Defs
 2722:946A       _Scan_Tab
 2722:027E       _Scl_Bottom
 0AAE:11FF       _Scl_Down
 2722:726A       _Scl_Regions
 2722:027C       _Scl_Top
 0AAE:111C       _Scl_Up
 15B4:22BA       _Screen
 2722:22C8       _Screen_Shft_Txt
 2722:7270       _Scr_Col
 2722:0280       _Scr_Length
 2722:02D6       _Scr_Shift
 2722:027A       _Scr_Width
 15B4:24E7       _Search_End
 1827:28AA       _Search_Load
 2722:04E6       _Sector_N_Found_Txt
 0CCB:2764       _Sedt_Args
 0CCB:1B8C       _Sedt_Cleanup
 0CCB:2E8D       _Sedt_Files
 0CCB:01B1       _Sedt_Init
 0CCB:1B78       _Sedt_Main
 0CCB:1BD3       _Sedt_Shutdown
 2722:04DE       _Seek_Error_Txt
 0000:454B       _segread
 2722:D776       _Seg_Regs
 1AC3:0AA1       _Select
 2722:90A2       _Sel_Col
 15B4:1419       _Sel_Range
 0000:0858       _SENDCMD
 15B4:1ED0       _Sentence
 2722:0526       _September_Txt
 0000:03BD       _Set43
 0000:4281       _setblock
 0000:5BF0       _setdate
 0000:0F11       _setdisk
 0000:0C62       _setmem
 0000:0A4C       _SETNUMLOCK
 0000:5C07       _settime
 0AAE:1E73       _Setup_Term
 0000:29E0       _setvbuf
 0000:4536       _setvect
 1AC3:2C53       _Set_Block
 1AC3:2C9A       _Set_Case_Sensitive
 1FDE:3509       _Set_Changes
 0000:0607       _Set_Crit
 0AAE:0FD4       _Set_Cursor
 1AC3:2CCD       _Set_Cursor_Free
 1AC3:2C75       _Set_Direction
 1FDE:0F5A       _Set_Edit_Region
 1AC3:2CBC       _Set_Ins_Defs
 1FDE:2413       _Set_Key
 112A:1094       _Set_Logical
 0000:0429       _Set_Mode
 0000:05D3       _Set_Mouse
 2722:00C2       _Set_Num_Lock
 1FDE:162D       _Set_Offset
 112A:104E       _Set_Physical
 15B4:2695       _Set_Region
 1AC3:2CAB       _Set_Reg_Search
 1AC3:2C64       _Set_Replace
 1AC3:0049       _Set_Save
 0AAE:13E2       _Set_Scroll
 1FDE:0B49       _Set_Tabs
 1AC3:2C89       _Set_Tab_Expand
 0AAE:0B9E       _Set_Terminal
 2722:0294       _Severe_Error
 2722:248E       _Severe_Txt
 2722:023E       _Sharemess
 2722:092C       _Share_1_Txt
 2722:0930       _Share_2_Txt
 2722:0934       _Share_3_Txt
 2722:0938       _Share_4_Txt
 2722:093C       _Share_5_Txt
 2722:0940       _Share_6_Txt
 2722:02A2       _Shifted_Out
 2722:22C6       _Shift_Arg_Pos
 1AC3:2B38       _Shift_In
 1AC3:2B3D       _Shift_Out
 2722:22C4       _Shift_Pos
 2722:0244       _Shift_Screen
 1AC3:26B1       _Shift_Toggle
 1AC3:33FF       _Show_Ascii
 1AC3:3136       _Show_Bcast
 1AC3:264B       _Show_Column
 2722:258A       _Show_Column_Txt
 2722:0284       _Show_Errors
 1EC5:005A       _Show_Help
 2722:029A       _Show_Marks
 2722:0224       _Show_Ruler
 1AC3:2803       _Show_Version
 0000:5053       _signal
 234D:09CF       _Signal_CC
 2722:02A4       _Skip
 15B4:1B41       _Skip_Spaces
 0CCB:2524       _Skip_To
 2722:2496       _Small_Txt
 2722:4C02       _SMonth
 0A51:02D1       _Space_Fill
 1827:15C3       _Spawn
 0000:5882       _spawnl
 2722:0562       _Spawn_Error_Txt
 2722:24DA       _Spec_Load_Txt
 0000:2B46       _sprintf
 0000:348B       _stat
 0000:5A82       _stime
 0000:0D21       _strcat
 0000:0D60       _strchr
 0000:0D9F       _strcmp
 0000:0DCF       _strcpy
 0000:0B30       _strcspn
 0000:0DF8       _stricmp
 1FDE:09F0       _Strip_Trailing
 0000:0E39       _strlen
 0000:0E5A       _strncmp
 0000:0E92       _strncpy
 0000:0B79       _strpbrk
 0000:0BC9       _strrchr
 2722:51A4       _St_Col
 2722:51A2       _St_Line
 1AC3:0FC5       _Subs
 1AC3:1025       _Subs_Conf
 1AC3:10BA       _Subs_Next
 1AC3:145B       _Subs_Next_Conf
 2722:7086       _Sub_H
 0AAE:0F99       _Sub_Set
 2722:7088       _Sub_W
 2722:0234       _Sub_Window
 2722:0236       _Sub_X
 2722:0238       _Sub_Y
 2722:4BCA       _SWeekday
 1FDE:34B8       _Syntax_Error
 2722:25B6       _Syntax_Error_Txt
 0000:58D3       _system
 2722:010C       _S_Border
 24C6:001D       _S_Copy
 0CCB:1C9E       _S_Header
 0CCB:25BF       _S_Ruler
 1AC3:256E       _Tab
 2722:6C6E       _Tabs
 2722:0292       _Tab_Expand
 2722:2294       _Tab_Exp_Txt
 2722:2298       _Tab_Ins_Txt
 2722:2292       _Tab_Pos
 1AC3:0523       _Tab_To
 1AC3:262F       _Tab_Toggle
 0AAE:20EC       _Term_Error
 2722:01A2       _Term_Names
 2722:0266       _Term_Type
 0CCB:2818       _Test_Args
 0CCB:19CA       _Test_Auto
 0CCB:081B       _Test_Config
 112A:1220       _Test_Dir_Key
 0CCB:1445       _Test_Files
 1AC3:2562       _Test_Input
 0CCB:17D5       _Test_Keyboard
 0CCB:157F       _Test_Mapping
 0CCB:18EC       _Test_Palette
 0CCB:14E1       _Test_Screenshift
 0CCB:1493       _Test_Searches
 0CCB:15E7       _Test_System
 2722:736A       _This_Cmd
 2722:02BE       _This_Line
 2722:253E       _This_Unsaved_Txt
 0000:5AC2       _time
 1AC3:275C       _Tog_Block
 1AC3:27A4       _Tog_Control
 1AC3:2818       _Tog_Cursor
 1AC3:27E4       _Tog_Direction
 1AC3:2736       _Tog_Marks
 1AC3:2843       _Tog_Reg_Search
 1AC3:285F       _Tog_Ruler
 0000:36BC       _tolower
 2722:02B4       _Toofar
 2722:254A       _Too_Long_Arg_Txt
 15B4:0823       _Top
 2722:0270       _Top_Func
 2722:0260       _Top_Row
 0000:36EC       _toupper
 2722:05D2       _To_Deep_Ex_Txt
 2722:235E       _Txt_ANSI
 2722:2306       _Txt_At
 2722:2426       _Txt_Autosave
 2722:0616       _Txt_Auto_Warn
 2722:238E       _Txt_Backupfile
 2722:25D2       _Txt_Bad_Version
 2722:23B6       _Txt_Bios
 2722:24CA       _Txt_Bof
 2722:242A       _Txt_Buffering
 2722:24EA       _Txt_Cancelled
 2722:2446       _Txt_Caps_Lock
 2722:2252       _Txt_Changed_Read_Only
 2722:2406       _Txt_Check
 2722:23F2       _Txt_Cleared
 2722:22E6       _Txt_Color
 2722:240A       _Txt_Column
 2722:23FA       _Txt_Context
 2722:238A       _Txt_Controlz
 2722:2302       _Txt_Convertible
 2722:2372       _Txt_Cursor
 2722:2366       _Txt_Cursorline
 2722:244E       _Txt_Debug
 2722:2442       _Txt_Dialog
 2722:23BA       _Txt_Direct
 2722:23E6       _Txt_Disabled
 2722:240E       _Txt_Displayed
 2722:248A       _Txt_Done
 2722:23D6       _Txt_Edt
 2722:23AA       _Txt_Ega43
 2722:2436       _Txt_EMS
 2722:23EA       _Txt_Enabled
 2722:2562       _Txt_End
 2722:22FE       _Txt_Enhanced
 2722:24C6       _Txt_Eof
 2722:23C6       _Txt_Expanded
 2722:246E       _Txt_Files
 2722:241A       _Txt_Firmware
 2722:236A       _Txt_Fixed
 2722:236E       _Txt_Floating
 2722:239E       _Txt_Fontsize
 2722:2402       _Txt_Forgotten
 2722:2376       _Txt_Free
 2722:242E       _Txt_Freemem
 2722:23A6       _Txt_Gold
 2722:061E       _Txt_Got_Auto
 2722:231A       _Txt_Ibmat
 2722:232A       _Txt_Ibmat339
 2722:231E       _Txt_Ibmconvertible
 2722:2312       _Txt_Ibmpc
 2722:2316       _Txt_Ibmxt
 2722:232E       _Txt_Ibmxt286
 2722:233A       _Txt_Ibmxtii
 2722:23C2       _Txt_Inserted
 2722:239A       _Txt_Ins_Defs
 2722:237E       _Txt_Journaling
 2722:22F2       _Txt_Keyboard
 2722:2462       _Txt_Literal
 2722:22F6       _Txt_LK250
 2722:24D2       _Txt_Loading
 2722:23CE       _Txt_Mapping
 2722:2476       _Txt_Margin
 2722:23A2       _Txt_Maxscroll
 2722:23F6       _Txt_Mode
 2722:22EA       _Txt_Mono
 2722:255E       _Txt_More
 2722:2412       _Txt_Mouse
 2722:22FA       _Txt_New
 2722:241E       _Txt_Newint16
 2722:24CE       _Txt_New_File
 2722:243A       _Txt_NoEMS
 2722:2432       _Txt_Nofreemem
 2722:244A       _Txt_Normal
 2722:23E2       _Txt_Numlock
 2722:2386       _Txt_Off
 2722:23D2       _Txt_Old
 2722:2422       _Txt_Oldint16
 2722:2382       _Txt_On
 2722:245A       _Txt_Overlapped
 2722:23AE       _Txt_Palette
 2722:2326       _Txt_Pc100
 2722:0576       _Txt_Printing
 2722:233E       _Txt_Ps230
 2722:2332       _Txt_Ps250
 2722:2336       _Txt_Ps260
 2722:2342       _Txt_Ps280
 2722:25C6       _Txt_Read_Only
 2722:2466       _Txt_Regular
 2722:2416       _Txt_Remember
 2722:2472       _Txt_Reservation
 2722:237A       _Txt_Restricted
 2722:2392       _Txt_Return
 2722:23CA       _Txt_Ruler
 2722:23FE       _Txt_Saved
 2722:259E       _Txt_Saving
 2722:23DE       _Txt_Scancode
 2722:22E2       _Txt_Screen
 2722:2396       _Txt_Screenshift
 2722:245E       _Txt_Searches
 2722:23EE       _Txt_Set
 2722:243E       _Txt_Share
 2722:230A       _Txt_SLT
 2722:22EE       _Txt_Standard
 2722:230E       _Txt_System
 2722:23BE       _Txt_Tabs
 2722:2346       _Txt_Tandy
 2722:2362       _Txt_tcap
 2722:246A       _Txt_Terminal
 2722:2322       _Txt_Vaxmate
 2722:23B2       _Txt_Video
 2722:235A       _Txt_Vk100
 2722:234A       _Txt_Vt100
 2722:234E       _Txt_Vt200
 2722:2352       _Txt_Vt300
 2722:2356       _Txt_Vt52
 2722:2452       _Txt_Windows
 2722:250E       _Txt_Working
 2722:23DA       _Txt_Wps
 2722:2456       _Txt_Zoomed
 2722:0626       _Txt_Zoomed_Error
 0000:6490       _tzset
 0000:38D7       _ultoa
 2722:0622       _Unassigned_Txt
 2722:252E       _Undefined_Escape_Txt
 1FDE:243E       _Undelete
 1AC3:2424       _Undo
 1AC3:0B04       _Und_Char
 1AC3:0B52       _Und_Line
 1AC3:0B79       _Und_Par
 1AC3:0BA0       _Und_Pg
 1AC3:0BEE       _Und_Sen
 1AC3:0BC7       _Und_Unknown
 1AC3:0B2B       _Und_Word
 0000:6139       _unixtodos
 2722:25BA       _Unknown_Command_Txt
 2722:04D2       _Unknown_Com_Txt
 2722:04E2       _Unknown_Media_Txt
 2722:04CA       _Unknown_Unit_Txt
 1FDE:34D5       _Unk_Err
 0000:1294       _unlink
 112A:118F       _Unmark_Cursor
 2722:24EE       _Unprogrammed_Txt
 2722:2526       _Unrecognized_Terminal_Txt
 2722:2256       _Unsaved_Blank_Txt
 2722:2552       _Unsaved_Chng_Sure_Txt
 2722:253A       _Unsaved_Chng_Txt
 2722:224E       _Unsaved_Txt
 2722:061A       _Unsupported_Term_Txt
 2722:02A0       _Update_Flag
 1AC3:2B4C       _Update_Off
 1AC3:2B57       _Update_On
 0CCB:208A       _Upd_Header
 1827:26C6       _Upd_Screen
 15B4:08E1       _Upper_Case
 2722:022E       _Use_Mouse
 2722:011E       _Version
 2722:2492       _Version_Txt
 15B4:03B1       _Vertical
 0000:2B91       _vfprintf
 2722:4FF0       _Video_Seg
 1AC3:0391       _VKS_Exit
 1AC3:0408       _VKS_Quit
 0000:2BB0       _vprintf
 0000:2B6C       _vsprintf
 1EC5:0000       _Wait_Char
 1EC5:1135       _Wait_Mess
 2722:736C       _What_Kind
 0AAE:20E2       _Wide_Screen
 1827:15BE       _Width
 1827:15B9       _Width132
 1827:15B4       _Width80
 1AC3:0C15       _Window
 1AC3:3DF1       _Window_Cascade
 1AC3:31FB       _Window_Changed
 1AC3:333B       _Window_Cycle
 1AC3:3DF6       _Window_Fix_Bottom
 1AC3:3E7F       _Window_Fix_Left
 1AC3:3F0B       _Window_Fix_Right
 1AC3:3F93       _Window_Fix_Top
 1AC3:390F       _Window_Grow
 1AC3:3B20       _Window_Move
 1AC3:32B0       _Window_Not_Used
 1FDE:3544       _Window_Position
 2722:7196       _Window_Ref
 1AC3:3A20       _Window_Shrink
 1AC3:3CC6       _Window_Tile
 1AC3:313B       _Window_Used
 1AC3:3C29       _Window_Zoom
 15B4:14FD       _Word
 2722:02C6       _Word_Wrap
 2722:0542       _Word_Wrap_Txt
 2722:02AA       _Working_Flag
 0000:178E       _write
 2722:25BE       _Write_Error_Txt
 2722:04EE       _Write_Fault_Txt
 2722:04C6       _Write_Protect_Txt
 0CCB:009F       _Write_Rem
 2722:053A       _Writing_Ruler_Txt
 1FDE:21F9       _Wr_Buffer
 2722:02A8       _Wr_Count
 1FDE:34F2       _Wr_Error
 1AC3:345E       _W_D_Border
 1AC3:364F       _W_S_Border
 1AC3:008B       _Yes_No
 2722:2532       _Yes_No_Txt
 2722:51A6       _Zap_Col
 2722:51AA       _Zap_Count
 2722:51A8       _Zap_Line
 1AC3:0D7A       _Zero
 24C6:0A4E       _Zero_Buffer
 0A51:02E9       _Zero_Fill
 2722:0264       _Zoomed
 2722:0250       _Zoom_Windows
 2722:4B20       __8086
 0000:4508       __abort
 0000:2DB5       __access
 0000:1000  Abs  __AHINCR
 0000:000C  Abs  __AHSHIFT
 2722:4B54       __argc
 2722:4B56       __argv
 2722:4B22       __atexitcnt
 2722:D7B0       __atexittbl
 0000:41AF       __brk
 2722:0088       __brklvl
 2722:006A       __C0argc
 2722:006C       __C0argv
 2722:0070       __C0environ
 0000:44E6       __cexit
 0000:0159       __checknull
 0000:0146       __cleanup
 0000:2E33       __close
 2722:49D0       __ctype
 0000:9A44       __CurrExcContext
 0000:0000  Abs  __cvtfak
 0000:44F8       __c_exit
 2722:4DC0       __daylight
 2722:D870       __DestructorCountPtr
 0000:5379       __DOSCMD
 0000:456D       __DOSENV
 2722:462A       __doserrno
 0000:11F0       __DOSERROR
 2722:462C       __dosErrorToSV
 0000:5B1A       __DOSTIMETOU
 0000:615C       __dostounix
 0000:0EC3       __dos_getdrive
 0000:10DA       __dos_getfileattr
 0000:0ED9       __dos_setdrive
 0000:10FE       __dos_setfileattr
 2722:4B64       __environ
 2722:0074       __envLng
 2722:0076       __envseg
 2722:0078       __envSize
 0000:69B3       __ExceptInit
 0000:8D04       __ExceptionHandler
 2722:0080       __Exception_list
 0000:4A1B       __exec
 0000:44D0       __exit
 2722:4B24       __exitbuf
 2722:4B28       __exitfopen
 2722:4B2C       __exitopen
 0000:2F9F       __fgetc
 0000:1A01       __flushout
 2722:461C       __fmode
 0000:2612       __fputc
 0000:27D5       __FPUTN
 0000:20E5       __fullpath
 0000:30C4       __getdcwd
 0000:1C2A       __GETFP
 0000:4368       __getswitchar
 0000:7FD4       __Global_unwind
 2722:0084       __heapbase
 2722:008C       __heaptop
 2722:005A       __Int0Vector
 2722:005E       __Int4Vector
 2722:0062       __Int5Vector
 2722:0066       __Int6Vector
 0000:11B2       __IOERROR
 0000:668C       __ISDST
 0000:553A       __LoadProg
 0000:8C2E       __Local_unwind
 0000:3802       __LONGTOA
 0000:0F34       __MKNAME
 0000:026F       __MMODEL
 2722:4D9A       __monthDay
 2722:4B0C       __new_handler
 0000:2FB8       __Nfgetc
 2722:45F2       __nfile
 2722:461E       __notUmask
 0000:3384       __open
 2722:45F4       __openfd
 0000:1B58       __OPENFP
 2722:007C       __osmajor
 2722:007D       __osminor
 2722:007C       __osversion
 2722:0090       __ovrbuffer
 2722:007A       __psp
 0000:1278       __read
 0000:39CD       __REALCVT
 2722:4F6E       __RealCvtVector
 0000:01BB       __restorezero
 0000:8C4E       __Return_unwind
 0000:2DF0       __rtl_chmod
 0000:2E11       __rtl_close
 0000:3331       __rtl_open
 0000:1246       __rtl_read
 0000:3634       __rtl_write
 0000:41F2       __sbrk
 2722:4F70       __ScanTodVector
 0000:46DA       __searchenv
 0000:4721       __searchstr
 0000:0000  Abs  __setargv__
 0000:0000  Abs  __setenvp__
 0000:4376       __setswitchar
 0000:0FF0       __setupio
 0000:57C0       __spawn
 2722:4B04       __stklen
 0000:0AF3       __stpcpy
 2722:4462       __streams
 2722:46F6       __sys_errlist
 2722:47B6       __sys_nerr
 0000:015A       __terminate
 2722:4DBC       __timezone
 0000:0F95       __TMPNAM
 2722:4DB4       __tzname
 0000:6289       __unixtodos
 0000:3884       __UTOA
 2722:007C       __version
 0000:12C8       __VPRINTER
 0000:3673       __write
 0000:1094       __xclose
 0000:2D34       __xfclose
 0000:2D76       __xfflush
 2722:0082       ___brklvl
 0000:67EE       ___call_terminate
 0000:68B8       ___call_unexpected
 2722:4DCE       ___CPPexceptionList
 0000:433E       ___ErrorMessage
 2722:4DD2       ___exceptFlags
 2722:4DF6       ___exceptionNameBuff
 2722:4DF2       ___exceptMemAllocVars
 2722:4DEE       ___exceptStaticBuffP
 2722:4E76       ___ExceptStaticXbuff
 0000:A186       ___ExitExceptBlocks
 0000:3CEF       ___first
 0000:A117       ___InitExceptBlocks
 0000:6FBD       ___JumpToCatch__
 0000:3CF1       ___last
 0000:339D       ___read
 0000:3CF3       ___rover
 2722:4DD4       ___savedDS
 2722:4DD6       ___savedSI
 2722:D830       ___SignalPtr
 2722:4DD8       ___terminatePTR
 2722:4DE0       ___terminate_DS
 2722:4DEA       ___throwExceptionName
 2722:4DE4       ___throwFileName
 2722:4DE8       ___throwLineNumber
 2722:4DDC       ___unexpectdPTR
 2722:4DE2       ___unexpectd_DS
 0000:2BCE       ___write
 2722:4B06       ___xalloc

  Address         Publics by Value

 0000:0000  Abs  __cvtfak
 0000:0000  Abs  __setargv__
 0000:0000  Abs  __setenvp__
 0000:000C  Abs  __AHSHIFT
 0000:1000  Abs  __AHINCR
 0000:0146       __cleanup
 0000:0159       __checknull
 0000:015A       __terminate
 0000:01BB       __restorezero
 0000:026D       DGROUP@
 0000:026F       __MMODEL
 0000:0275       Mouse_SS
 0000:0277       Mouse_SP
 0000:0279       Mouse_AX
 0000:027B       _C_Scan
 0000:02AD       _C_Bscan
 0000:02E2       _M_Alloc
 0000:02FD       _M_Free
 0000:0314       _IBMpage
 0000:0326       _IBMcursor
 0000:033D       _IBMscrup
 0000:035E       _IBMscrdown
 0000:037F       _IBMsout
 0000:03A3       _IBMcout
 0000:03BD       _Set43
 0000:03F3       _Clr43
 0000:0429       _Set_Mode
 0000:0449       _Get_Mode
 0000:0504       _Dir_Out
 0000:0543       _Dir_Set
 0000:057A       _M_Int
 0000:05D3       _Set_Mouse
 0000:05ED       _Clear_Mouse
 0000:0607       _Set_Crit
 0000:0636       _Reset_Crit
 0000:0658       INT24
 0000:067A       _GETTYP
 0000:06A2       _OURKBD
 0000:0705       _GETDIR
 0000:0748       _GETSCAN
 0000:0769       _GETEXT
 0000:078A       _ANYDIR
 0000:07AC       _ANYCHR
 0000:07C6       _ANYEXT
 0000:07E9       _KEYREL
 0000:082A       _PRINT_SCREEN
 0000:083A       _GETCAPS
 0000:0858       _SENDCMD
 0000:08B2       _GETEQ
 0000:08D1       INT9
 0000:09EF       _GETSHIFT
 0000:0A0E       _GETALT
 0000:0A2D       _GETNUM
 0000:0A4C       _SETNUMLOCK
 0000:0A71       _CLRNUMLOCK
 0000:0A94       _RESNUMLOCK
 0000:0AB3       _pc_enh_keyb
 0000:0ACC       _pc_get_cursor
 0000:0ADF       _pc_sys_type
 0000:0AF3       __stpcpy
 0000:0B30       _strcspn
 0000:0B79       _strpbrk
 0000:0BC9       _strrchr
 0000:0C16       _memcmp
 0000:0C3E       _memcpy
 0000:0C62       _setmem
 0000:0C88       _memset
 0000:0CAA       _movmem
 0000:0CFC       _memmove
 0000:0D21       _strcat
 0000:0D60       _strchr
 0000:0D9F       _strcmp
 0000:0DCF       _strcpy
 0000:0DF8       _stricmp
 0000:0E39       _strlen
 0000:0E5A       _strncmp
 0000:0E92       _strncpy
 0000:0EC3       __dos_getdrive
 0000:0ED9       __dos_setdrive
 0000:0EF3       _getdisk
 0000:0F11       _setdisk
 0000:0F34       __MKNAME
 0000:0F95       __TMPNAM
 0000:0FF0       __setupio
 0000:1094       __xclose
 0000:10BE       _chdir
 0000:10DA       __dos_getfileattr
 0000:10FE       __dos_setfileattr
 0000:111F       _dup2
 0000:115A       _dup
 0000:1193       _getcurdir
 0000:11B2       __IOERROR
 0000:11F0       __DOSERROR
 0000:1204       _isatty
 0000:1219       _lseek
 0000:1246       __rtl_read
 0000:1278       __read
 0000:1294       _unlink
 0000:12C8       __VPRINTER
 0000:178B       _read
 0000:178E       _write
 0000:1791       _access
 0000:17AB       _chmod
 0000:17F8       _close
 0000:1824       _fclose
 0000:18E4       _fflush
 0000:19B5       _flushall
 0000:1A01       __flushout
 0000:1B58       __OPENFP
 0000:1C2A       __GETFP
 0000:1C77       _fopen
 0000:1CB0       _fprintf
 0000:1CD0       _fputs
 0000:1E40       _fread
 0000:1F63       _fseek
 0000:1FE5       _ftell
 0000:20E5       __fullpath
 0000:233E       _fwrite
 0000:23D7       _getcwd
 0000:2465       _mktemp
 0000:2562       _perror
 0000:25F3       _printf
 0000:2612       __fputc
 0000:2632       _fputc
 0000:27BD       _fputchar
 0000:27D5       __FPUTN
 0000:29E0       _setvbuf
 0000:2B46       _sprintf
 0000:2B6C       _vsprintf
 0000:2B91       _vfprintf
 0000:2BB0       _vprintf
 0000:2BCE       ___write
 0000:2D34       __xfclose
 0000:2D76       __xfflush
 0000:2DB5       __access
 0000:2DF0       __rtl_chmod
 0000:2E11       __rtl_close
 0000:2E33       __close
 0000:2E44       _creat
 0000:2E62       _eof
 0000:2F9F       __fgetc
 0000:2FB8       __Nfgetc
 0000:2FBB       _fgetc
 0000:30B4       _fgetchar
 0000:30C4       __getdcwd
 0000:3196       _open
 0000:3331       __rtl_open
 0000:3384       __open
 0000:339D       ___read
 0000:346C       _rename
 0000:348B       _stat
 0000:3634       __rtl_write
 0000:3673       __write
 0000:368F       _ioctl
 0000:36BC       _tolower
 0000:36EC       _toupper
 0000:371C       N_LDIV@
 0000:371F       F_LDIV@
 0000:371F       LDIV@
 0000:3723       N_LUDIV@
 0000:3726       F_LUDIV@
 0000:3726       LUDIV@
 0000:372B       N_LMOD@
 0000:372E       F_LMOD@
 0000:372E       LMOD@
 0000:3733       N_LUMOD@
 0000:3736       LUMOD@
 0000:3736       F_LUMOD@
 0000:37CA       N_LXLSH@
 0000:37CD       LXLSH@
 0000:37CD       F_LXLSH@
 0000:37EB       N_LXMUL@
 0000:3802       __LONGTOA
 0000:3884       __UTOA
 0000:38A8       _itoa
 0000:38D7       _ultoa
 0000:38F8       _ltoa
 0000:3924       _atol
 0000:3999       _atoi
 0000:39CD       __REALCVT
 0000:39D1       operator delete(void far*)
 0000:39E7       operator delete[](void far*)
 0000:3A19       xnew_handler()
 0000:3A84       set_new_handler(void(far*)())
 0000:3AB2       operator new(unsigned int)
 0000:3CEF       ___first
 0000:3CF1       ___last
 0000:3CF3       ___rover
 0000:3E2F       _free
 0000:3E2F       _farfree
 0000:3F39       _malloc
 0000:3F43       _farmalloc
 0000:40A0       _realloc
 0000:40A7       _farrealloc
 0000:41AF       __brk
 0000:41F2       __sbrk
 0000:4281       _setblock
 0000:42A1       N_PADD@
 0000:42A4       PADD@
 0000:42A4       F_PADD@
 0000:42D0       N_PSUB@
 0000:42D3       PSUB@
 0000:42D3       F_PSUB@
 0000:4301       N_PCMP@
 0000:4322       N_SCOPY@
 0000:433E       ___ErrorMessage
 0000:4368       __getswitchar
 0000:4376       __setswitchar
 0000:4387       _bdos
 0000:439B       _movedata
 0000:4419       _abort
 0000:442D       _atexit
 0000:44BD       _exit
 0000:44D0       __exit
 0000:44E6       __cexit
 0000:44F8       __c_exit
 0000:4508       __abort
 0000:4523       _getvect
 0000:4536       _setvect
 0000:454B       _segread
 0000:456D       __DOSENV
 0000:46DA       __searchenv
 0000:4721       __searchstr
 0000:4844       _getenv
 0000:4A1B       __exec
 0000:5053       _signal
 0000:5181       _raise
 0000:5218       _int86
 0000:524D       _int86x
 0000:52E7       _intdos
 0000:5319       _intdosx
 0000:5379       __DOSCMD
 0000:553A       __LoadProg
 0000:57C0       __spawn
 0000:5882       _spawnl
 0000:58D3       _system
 0000:5A54       _getdate
 0000:5A6B       _gettime
 0000:5A82       _stime
 0000:5AC2       _time
 0000:5B1A       __DOSTIMETOU
 0000:5BF0       _setdate
 0000:5C07       _settime
 0000:5E1C       _atime
 0000:5E73       _gmtime
 0000:5E90       _localtime
 0000:5ECC       _asctime
 0000:5EFD       _ctime
 0000:60B8       _mktime
 0000:611C       _dostounix
 0000:6139       _unixtodos
 0000:615C       __dostounix
 0000:6289       __unixtodos
 0000:6490       _tzset
 0000:668C       __ISDST
 0000:6778       terminate()
 0000:6782       set_terminate(void(far*)())
 0000:67EE       ___call_terminate
 0000:686D       unexpected()
 0000:6876       set_unexpected(void(far*)())
 0000:68B8       ___call_unexpected
 0000:6907       __getpolymorphicdtc(void far*,unsigned int)
 0000:695B       __getpolymorphicdtcfar(void far*,unsigned int)
 0000:69B3       __ExceptInit
 0000:6A01       xalloc::xalloc(const string far&,unsigned int)
 0000:6A80       xalloc::raise()
 0000:6C26       xmsg::xmsg(const string far&)
 0000:6CF1       xmsg::xmsg(const xmsg far&)
 0000:6D9C       xmsg::~xmsg()
 0000:6E08       xmsg::raise()
 0000:6E7F       xmsg::operator =(const xmsg far&)
 0000:6FBD       ___JumpToCatch__
 0000:7E40       _throwexception(void far*,void far*,void far*,void far*,unsigned int,unsigned int,unsigned int,unsigned char far*)
 0000:7E99       _rethrowexception(unsigned int,unsigned char far*)
 0000:7FD4       __Global_unwind
 0000:8020       _RaiseException
 0000:85F1       _catchcleanup()
 0000:8C2E       __Local_unwind
 0000:8C4E       __Return_unwind
 0000:8D04       __ExceptionHandler
 0000:9A44       __CurrExcContext
 0000:9A99       __throwfilename()
 0000:9AAB       __throwlinenumber()
 0000:9AB9       __throwexceptionname()
 0000:9ACB       typeinfo::typeinfo(const typeinfo far&)
 0000:9B39       typeinfo::operator =(const typeinfo far&)
 0000:9B48       typeinfo::~typeinfo()
 0000:9B7C       typeinfo::operator ==(const typeinfo far&) const
 0000:9BA2       typeinfo::operator !=(const typeinfo far&) const
 0000:9BC3       typeinfo::before(const typeinfo far&) const
 0000:9C3B       typeinfo::name() const
 0000:9C55       __gettypeinfo(void far*,void far*,void far*,void far*)
 0000:9F1E       __dynamiccast(void far*,void far*,void far*,void far*,int)
 0000:A10B       __refdestructorcount()
 0000:A111       __refexceptionlist()
 0000:A117       ___InitExceptBlocks
 0000:A186       ___ExitExceptBlocks
 0A51:0004       _Out_C
 0A51:0024       _Out_I
 0A51:0063       _Out_S
 0A51:0096       _Out_Zap
 0A51:0194       _Opt_Init
 0A51:02D1       _Space_Fill
 0A51:02E9       _Zero_Fill
 0A51:0301       _Opt_Cursor
 0A51:0314       _Put_Char
 0A51:0337       _Opt_Move_Cursor
 0A51:037D       _Opt_Char
 0A51:0503       _Opt_String
 0A51:052C       _Opt_Erase_Line
 0A51:05AF       _Get_Type
 0AAE:000D       _Mouse_Int
 0AAE:00D1       _Mouse_Call
 0AAE:0509       _Mouse_Execute
 0AAE:0B9E       _Set_Terminal
 0AAE:0F99       _Sub_Set
 0AAE:0FD4       _Set_Cursor
 0AAE:100E       _Opt_Scroll
 0AAE:111C       _Scl_Up
 0AAE:11FF       _Scl_Down
 0AAE:12E2       _Clr_Screen
 0AAE:1370       _Reset_Screen
 0AAE:13E2       _Set_Scroll
 0AAE:1407       _Move_Right
 0AAE:142D       _Move_Left
 0AAE:1459       _Opt_Force_Attributes
 0AAE:146A       _Del_To_End_Line
 0AAE:14E9       _Do_Mapping
 0AAE:156A       _Keyfile
 0AAE:157C       _Mapfile
 0AAE:1681       _Helpfile
 0AAE:1786       _Conin
 0AAE:184E       _Getkbd
 0AAE:1A0F       _Getkey
 0AAE:1B4C       _Next_Comb
 0AAE:1C9B       _Check_Comb
 0AAE:1E73       _Setup_Term
 0AAE:1FF6       _Reset_Term
 0AAE:20E2       _Wide_Screen
 0AAE:20E7       _Narrow_Screen
 0AAE:20EC       _Term_Error
 0AAE:2103       _Key_Error
 0AAE:2120       _Esc_Error
 0AAE:2137       _Mouse
 0CCB:0001       _main
 0CCB:009F       _Write_Rem
 0CCB:01B1       _Sedt_Init
 0CCB:0645       _Read_Config
 0CCB:081B       _Test_Config
 0CCB:1445       _Test_Files
 0CCB:1493       _Test_Searches
 0CCB:14E1       _Test_Screenshift
 0CCB:157F       _Test_Mapping
 0CCB:15E7       _Test_System
 0CCB:17D5       _Test_Keyboard
 0CCB:18EC       _Test_Palette
 0CCB:19CA       _Test_Auto
 0CCB:1ADE       _Init_Buffer
 0CCB:1B78       _Sedt_Main
 0CCB:1B8C       _Sedt_Cleanup
 0CCB:1BD3       _Sedt_Shutdown
 0CCB:1C9E       _S_Header
 0CCB:208A       _Upd_Header
 0CCB:2524       _Skip_To
 0CCB:2558       _Put_I
 0CCB:257A       _Rec_I
 0CCB:25BF       _S_Ruler
 0CCB:2744       _Argerror
 0CCB:2759       _Cnf_Error
 0CCB:2764       _Sedt_Args
 0CCB:2818       _Test_Args
 0CCB:2E8D       _Sedt_Files
 0CCB:327C       _Initerror
 0FF5:0000       _regcomp
 0FF5:01EF       _reg
 0FF5:03B8       _regbranch
 0FF5:0470       _regpiece
 0FF5:06B1       _regatom
 0FF5:0992       _regnode
 0FF5:09F0       _regc
 0FF5:0A1A       _reginsert
 0FF5:0A91       _regtail
 0FF5:0B0B       _regoptail
 0FF5:0B47       _regexec
 0FF5:0CAD       _regtry
 0FF5:0D52       _regmatch
 0FF5:10A5       _regrepeat
 0FF5:1189       _regnext
 1113:0006       _regsub
 112A:0000       _Rem_Pad
 112A:006A       _Rem_Del
 112A:00D4       _Adj_Pad
 112A:010E       _Adj_Del
 112A:0147       _Exec_Key
 112A:0220       _Expand_Com
 112A:104E       _Set_Physical
 112A:1094       _Set_Logical
 112A:10BE       _Push
 112A:10D4       _Pop
 112A:10E9       _Mark_Cursor
 112A:118F       _Unmark_Cursor
 112A:1220       _Test_Dir_Key
 112A:12D7       _Ins_Key
 112A:138A       _Key_Get
 112A:13D9       _Ins_A_Key
 112A:14C3       _Readkeys
 112A:1598       _Readmaps
 112A:17E0       _Char_Rep
 112A:1911       _Erase_Del
 112A:1950       _Key_Addr
 12C0:0002       _F_open
 12C0:00BE       _F_close
 12C0:0124       _F_gets
 12C0:027A       _F_read
 12C0:02B2       _F_getc
 12C0:0330       _F_write
 12C0:0363       _F_putc
 12FB:000D       _Reset_Width
 12FB:002D       _Editor
 12FB:04CC       _Readruler
 12FB:075F       _Fill_Rest
 12FB:0C03       _Fill_Screen
 12FB:12A3       _Read_File
 12FB:1373       _Filnam
 12FB:1472       _Filtyp
 12FB:156C       _Filjnam
 12FB:162F       _Fildir
 12FB:16FC       _Include_File
 12FB:18F3       _Error
 12FB:1A00       _Plain_Error
 12FB:1AC5       _Message
 12FB:1B9D       _Plain_Message
 12FB:1C48       _Diag
 12FB:1CA7       _Pad_Put
 12FB:1D2E       _Pad_Get
 12FB:1DB2       _Get16
 12FB:1F79       _Clr_Error
 12FB:202D       _Do_Command
 12FB:23F1       _Clr_Working
 12FB:2457       _Ins_Char
 12FB:27CE       _Read_Count
 12FB:2937       _Put_Count
 12FB:2982       _Find_From
 12FB:29F1       _Find_Env
 12FB:2A7E       _Find_Path
 15B4:0007       _regerror
 15B4:001C       _Chk_CRLF_F
 15B4:0090       _Chk_CRLF_FB
 15B4:00FF       _Chk_CRLF_B
 15B4:016E       _Chk_CRLF_BF
 15B4:01DD       _A_Char
 15B4:01FA       _Char
 15B4:0379       _Abs_Char
 15B4:03B1       _Vertical
 15B4:06A2       _Line
 15B4:07DE       _Abs_Line
 15B4:0823       _Top
 15B4:0858       _Bottom
 15B4:087A       _Find
 15B4:08AE       _Find_Next
 15B4:08E1       _Upper_Case
 15B4:090F       _Lower_Case
 15B4:093D       _Find_This
 15B4:1419       _Sel_Range
 15B4:14FD       _Word
 15B4:152A       _A_Word
 15B4:17F7       _Get_Mark
 15B4:18B7       _Next_Mark
 15B4:19E6       _Line_End
 15B4:1B41       _Skip_Spaces
 15B4:1BA4       _B_Skip_Spaces
 15B4:1C0B       _Par
 15B4:1C3D       _A_Par
 15B4:1ED0       _Sentence
 15B4:1F02       _A_Sentence
 15B4:2176       _Page
 15B4:22BA       _Screen
 15B4:22F4       _Match_Bracket
 15B4:24E7       _Search_End
 15B4:2516       _Ex_Entity
 15B4:2649       _Cnt_F_Lines
 15B4:266F       _Cnt_B_Lines
 15B4:2695       _Set_Region
 15B4:26AA       _End_Error
 15B4:26DD       _Beg_Error
 15B4:2706       _Delim_Error
 15B4:271D       _Ent_Error
 1827:0004       _Ruler
 1827:0734       _Get_Spaces
 1827:07B1       _Get_Word
 1827:0824       _Fill
 1827:089F       _Put_A_Char
 1827:08C7       _Blind_Tab_To
 1827:0930       _Do_Fill
 1827:0F05       _Adj_Tabs
 1827:11A9       _Center_Line
 1827:13FC       _Refresh
 1827:1483       _Repaint
 1827:15B4       _Width80
 1827:15B9       _Width132
 1827:15BE       _Width
 1827:15C3       _Spawn
 1827:17C4       _Q_Spawn
 1827:1844       _R_Spawn
 1827:1A23       _Ch_Case
 1827:1A45       _Ch_Lower
 1827:1A67       _Ch_Upper
 1827:1A89       _Ch_It
 1827:1D0F       _Repl
 1827:1D5D       _Print
 1827:1F2C       _File_Execute
 1827:1F7E       _Ex_File
 1827:20B2       _Ind_Set
 1827:20CB       _Ind_Decrease
 1827:20F6       _Ind_Increase
 1827:2110       _Key_Load
 1827:219B       _Get_Key
 1827:2208       _Load_Key
 1827:2297       _Key_Save
 1827:23B8       _Sav_Key
 1827:23ED       _Del_Append
 1827:2403       _Get_Append
 1827:2419       _Ch_Edt_Style
 1827:24AB       _Past_Load
 1827:2553       _Past_Save
 1827:2646       _Open_Line
 1827:26C6       _Upd_Screen
 1827:26D5       _Load_Learn
 1827:27C3       _Ex_Learn
 1827:28AA       _Search_Load
 1827:28D5       _Out_Message
 1827:28F8       _Put_Date
 1AC3:000A       _Sav_Set
 1AC3:0049       _Set_Save
 1AC3:0064       _Clr_Typeahead
 1AC3:008B       _Yes_No
 1AC3:01F0       _Exit_Sedt
 1AC3:034F       _Rem_Autosave
 1AC3:0391       _VKS_Exit
 1AC3:0408       _VKS_Quit
 1AC3:0428       _Quit
 1AC3:0523       _Tab_To
 1AC3:066A       _A_New_Line
 1AC3:072A       _New_Line
 1AC3:0774       _Do_New_Line
 1AC3:0874       _Find_Margin
 1AC3:0990       _Del_It
 1AC3:09D9       _Get
 1AC3:0A29       _Get_E_Type
 1AC3:0A7A       _Advance
 1AC3:0A8E       _Backup
 1AC3:0AA1       _Select
 1AC3:0ADD       _Paste
 1AC3:0B04       _Und_Char
 1AC3:0B2B       _Und_Word
 1AC3:0B52       _Und_Line
 1AC3:0B79       _Und_Par
 1AC3:0BA0       _Und_Pg
 1AC3:0BC7       _Und_Unknown
 1AC3:0BEE       _Und_Sen
 1AC3:0C15       _Window
 1AC3:0C40       _Ascii
 1AC3:0C73       _Get_Arg
 1AC3:0CFC       _File_Get
 1AC3:0D7A       _Zero
 1AC3:0ECA       _Mark_Pos
 1AC3:0F69       _End_Mark
 1AC3:0FC5       _Subs
 1AC3:1025       _Subs_Conf
 1AC3:1085       _Ins_Del
 1AC3:10BA       _Subs_Next
 1AC3:145B       _Subs_Next_Conf
 1AC3:1811       _Put_Rep
 1AC3:18A4       _Insert
 1AC3:19E4       _File_Edit
 1AC3:1A06       _Edit_File
 1AC3:1CD5       _C_Read_L
 1AC3:1D0B       _C_Read_I
 1AC3:1D3D       _Read_Context
 1AC3:1F46       _File_Save
 1AC3:2011       _File_Write
 1AC3:204E       _End_Com
 1AC3:2067       _Def_Key_Function
 1AC3:212F       _Def_Key_Alpha
 1AC3:2145       _Def_Key_Key
 1AC3:215B       _Def_Key_G_Alpha
 1AC3:2171       _Def_Key_G_Key
 1AC3:2187       _Def_Key
 1AC3:2369       _Def_Key_Number
 1AC3:2399       _Def_Function
 1AC3:240A       _Reset
 1AC3:2424       _Undo
 1AC3:2546       _Input_Test
 1AC3:2562       _Test_Input
 1AC3:256E       _Tab
 1AC3:2613       _Overstrike_Mode
 1AC3:262F       _Tab_Toggle
 1AC3:264B       _Show_Column
 1AC3:2678       _Get_Ruler
 1AC3:26B1       _Shift_Toggle
 1AC3:26CD       _Case_Toggle
 1AC3:26E9       _Ins_Defs_Toggle
 1AC3:2705       _Cursor_Free_Toggle
 1AC3:2721       _Change_Window
 1AC3:272B       _Err_Level
 1AC3:2736       _Tog_Marks
 1AC3:275C       _Tog_Block
 1AC3:27A4       _Tog_Control
 1AC3:27E4       _Tog_Direction
 1AC3:2803       _Show_Version
 1AC3:2818       _Tog_Cursor
 1AC3:2843       _Tog_Reg_Search
 1AC3:285F       _Tog_Ruler
 1AC3:28B0       _Curs_Top
 1AC3:2944       _Curs_Bottom
 1AC3:29F6       _Curs_Middle
 1AC3:2B38       _Shift_In
 1AC3:2B3D       _Shift_Out
 1AC3:2B42       _Font_Larger
 1AC3:2B47       _Font_Smaller
 1AC3:2B4C       _Update_Off
 1AC3:2B57       _Update_On
 1AC3:2B98       _Remove_Char
 1AC3:2BA9       _Remove_Help
 1AC3:2BBA       _Remove_Line
 1AC3:2BCB       _Remove_Page
 1AC3:2BDC       _Remove_Par
 1AC3:2BED       _Remove_Paste
 1AC3:2BFE       _Remove_Search
 1AC3:2C0F       _Remove_Sent
 1AC3:2C20       _Remove_Subs
 1AC3:2C31       _Remove_Unknown
 1AC3:2C42       _Remove_Word
 1AC3:2C53       _Set_Block
 1AC3:2C64       _Set_Replace
 1AC3:2C75       _Set_Direction
 1AC3:2C89       _Set_Tab_Expand
 1AC3:2C9A       _Set_Case_Sensitive
 1AC3:2CAB       _Set_Reg_Search
 1AC3:2CBC       _Set_Ins_Defs
 1AC3:2CCD       _Set_Cursor_Free
 1AC3:2CDE       _Counter_Set
 1AC3:2D1C       _Counter_Put
 1AC3:2D78       _Counter_Increment
 1AC3:2DB8       _Counter_Absolute_Value
 1AC3:2DFA       _End_Learn
 1AC3:2E1C       _Context_Save
 1AC3:2E56       _Save_The_Context
 1AC3:3042       _Delete_The_Context
 1AC3:3075       _C_Write
 1AC3:30BD       _Check_Point
 1AC3:310C       _Push_Changes
 1AC3:3121       _Pop_Changes
 1AC3:3136       _Show_Bcast
 1AC3:313B       _Window_Used
 1AC3:31FB       _Window_Changed
 1AC3:32B0       _Window_Not_Used
 1AC3:333B       _Window_Cycle
 1AC3:336F       _Redefine_Key
 1AC3:33FF       _Show_Ascii
 1AC3:345E       _W_D_Border
 1AC3:364F       _W_S_Border
 1AC3:3866       _Open_Window
 1AC3:3879       _Refresh_Window
 1AC3:390F       _Window_Grow
 1AC3:3A20       _Window_Shrink
 1AC3:3B20       _Window_Move
 1AC3:3C29       _Window_Zoom
 1AC3:3CC6       _Window_Tile
 1AC3:3DF1       _Window_Cascade
 1AC3:3DF6       _Window_Fix_Bottom
 1AC3:3E7F       _Window_Fix_Left
 1AC3:3F0B       _Window_Fix_Right
 1AC3:3F93       _Window_Fix_Top
 1EC5:0000       _Wait_Char
 1EC5:005A       _Show_Help
 1EC5:00A8       _Display_Help
 1EC5:01DE       _Help
 1EC5:0224       _Do_Help
 1EC5:1135       _Wait_Mess
 1FDE:0009       _Put_Time
 1FDE:0065       _Out_Error
 1FDE:008C       _Other_Window
 1FDE:00A7       _Rul_Load
 1FDE:026D       _Ins_String
 1FDE:02E8       _Rul_Save
 1FDE:03C7       _Save_Keys
 1FDE:073D       _Save_Functions
 1FDE:098C       _f_puti
 1FDE:09F0       _Strip_Trailing
 1FDE:0B49       _Set_Tabs
 1FDE:0D6D       _Remove_Tabs
 1FDE:0F5A       _Set_Edit_Region
 1FDE:0F8D       _Cancel_Edit_Region
 1FDE:0FAA       _Key_Mess
 1FDE:0FBF       _Clear_Region
 1FDE:100D       _Counter_Get
 1FDE:1169       _Counter_Add
 1FDE:12C5       _Get_Counter_Index
 1FDE:1357       _Query
 1FDE:1393       _Execute_Key
 1FDE:14A1       _Execute_Function
 1FDE:158C       _Diag_Error
 1FDE:15A3       _Pos_Cursor
 1FDE:162D       _Set_Offset
 1FDE:1711       _Adj_Lines
 1FDE:171F       _Move_Key
 1FDE:1783       _Init_Entity
 1FDE:17C2       _Blk_Rem_It
 1FDE:1C73       _Rem_It
 1FDE:21F9       _Wr_Buffer
 1FDE:2380       _Save_Auto
 1FDE:2413       _Set_Key
 1FDE:243E       _Undelete
 1FDE:28A5       _Chk_EL
 1FDE:2905       _Sav_Window
 1FDE:2EF9       _Load_Window
 1FDE:31DD       _Newwindow
 1FDE:32C7       _Ch_Window
 1FDE:349B       _Com_Error
 1FDE:34B8       _Syntax_Error
 1FDE:34D5       _Unk_Err
 1FDE:34F2       _Wr_Error
 1FDE:3509       _Set_Changes
 1FDE:352D       _Clr_Changes
 1FDE:3544       _Window_Position
 234D:0009       _Get_Count
 234D:0102       _Com_Parse
 234D:09AC       _Check_CC
 234D:09CF       _Signal_CC
 234D:09EC       _Ex_Command
 234D:0AD5       _Move_Entity
 234D:0BA4       _Move_Forward
 234D:0E78       _Move_Back
 234D:1274       _Goto_This
 234D:12D2       _Paint_To_This
 234D:13AB       _Backto_This
 234D:13ED       _B_Save
 234D:159D       _Put_Out
 234D:15DC       _Get_Entity
 234D:16BA       _Adj_Points
 24C6:0001       _C_Move
 24C6:001D       _S_Copy
 24C6:0051       _Fatalerror
 24C6:008C       _Crit_Int
 24C6:018B       _Blockread
 24C6:0203       _Blockwrite
 24C6:027B       _Out_Buf
 24C6:055C       _In_Buf
 24C6:07BB       _B_Flush
 24C6:081B       _B_Rewind
 24C6:08B0       _B_Goto
 24C6:09CC       _Out_In_Buf
 24C6:09FA       _B_Init
 24C6:0A0D       _B_Reset
 24C6:0A4E       _Zero_Buffer
 24C6:0ABD       _B_Modify
 24C6:0AF5       _Make_Room
 24C6:0B63       _B_Put
 24C6:0C0F       _B_Put_S
 24C6:0D04       _B_Repl_S
 24C6:0DA6       _B_Replace
 24C6:0E23       _B_Del
 24C6:0ECE       _B_Get
 24C6:0F14       _B_Get_N
 24C6:0FE9       _B_Get_S
 24C6:113C       _B_Rem
 24C6:120E       _B_Copy
 24C6:139A       _B_B_Get
 24C6:1417       _B_Search
 24C6:1504       _B_B_Search
 24C6:15FD       _Mem_Return
 24C6:163D       _Init_Buf
 24C6:1687       _Reset_Buf
 24C6:173D       _Mem_Alloc
 24C6:17C2       _Move_To_EMS
 24C6:1826       _Move_From_EMS
 24C6:188A       _Check_EMS
 24C6:18EC       _Get_EMS
 24C6:194D       _Return_EMS
 265D:0003       string::string(const string far&)
 265D:00EC       string::string(const char far*)
 265D:0308       string::~string()
 265D:038E       string::assert_element(unsigned int) const
 265D:044C       string::assert_index(unsigned int) const
 265D:050A       tsubstring::assert_element(unsigned int) const
 265D:05C5       tstringref::tstringref(const char far*,unsigned int,const char far*,unsigned int,unsigned int)
 265D:06AB       tstringref::~tstringref()
 265D:070B       tstringref::reserve(unsigned int)
 265D:0779       tstringref::check_freeboard()
 265D:07E1       tstringref::grow_to(unsigned int)
 265D:0843       tstringref::round_capacity(unsigned int)
 265D:0882       tstringref::splice(unsigned int,unsigned int,const char far*,unsigned int)
 265D:0A40       string::set_case_sensitive(int)
 265D:0A5D       string::set_paranoid_check(int)
 265D:0A7A       string::skip_whitespace(int)
 265D:0A97       string::initial_capacity(unsigned int)
 265D:0AB4       string::resize_increment(unsigned int)
 265D:0ADE       string::max_waste(unsigned int)
 2722:0000       DATASEG@
 2722:005A       __Int0Vector
 2722:005E       __Int4Vector
 2722:0062       __Int5Vector
 2722:0066       __Int6Vector
 2722:006A       __C0argc
 2722:006C       __C0argv
 2722:0070       __C0environ
 2722:0074       __envLng
 2722:0076       __envseg
 2722:0078       __envSize
 2722:007A       __psp
 2722:007C       __osmajor
 2722:007C       __version
 2722:007C       __osversion
 2722:007D       __osminor
 2722:007E       _errno
 2722:0080       __Exception_list
 2722:0082       ___brklvl
 2722:0084       __heapbase
 2722:0088       __brklvl
 2722:008C       __heaptop
 2722:0090       __ovrbuffer
 2722:0092       _Mem_Buffering
 2722:0094       _EMS_Buffering
 2722:0096       _Got_EMS
 2722:0098       _EMS_Top
 2722:009A       _In_Int24
 2722:009C       _Mem_Entries
 2722:009E       _Keyb_Names
 2722:00C2       _Set_Num_Lock
 2722:00C4       _New_Mode
 2722:00C6       _Old_Mode
 2722:00C8       _Keyb_Type
 2722:00CA       _Color
 2722:00CC       _Gotmouse
 2722:00CE       _Int16_Ext
 2722:00D0       _Bracket
 2722:00E8       _Attab
 2722:00F8       _Nobak
 2722:00FA       _Display_Column
 2722:00FC       _D_Border
 2722:010C       _S_Border
 2722:011C       _Mouse_OK
 2722:011E       _Version
 2722:0122       _Rep
 2722:01A2       _Term_Names
 2722:020A       _First_Line
 2722:020C       _Nosub
 2722:020E       _Auto_Margin
 2722:0210       _CC_Enable
 2722:0212       _Doreturn
 2722:0214       _Call_Type
 2722:0216       _Call_Color
 2722:0218       _Hdr_Changes
 2722:021A       _Def_Font
 2722:021C       _Max_Scroll
 2722:021E       _EGA43
 2722:0220       _Dir_Video
 2722:0222       _Call_Model
 2722:0224       _Show_Ruler
 2722:0226       _Mapping
 2722:0228       _Auto_Save
 2722:022A       _Auto_Warn
 2722:022C       _Save_Context
 2722:022E       _Use_Mouse
 2722:0230       _Remember
 2722:0232       _Firmware
 2722:0234       _Sub_Window
 2722:0236       _Sub_X
 2722:0238       _Sub_Y
 2722:023A       _CC_Flag
 2722:023C       _Case_Sensitive
 2722:023E       _Sharemess
 2722:0240       _Conf_Error
 2722:0242       _Caps_Lock
 2722:0244       _Shift_Screen
 2722:0246       _Ins_Defs
 2722:0248       _Cursor_Free
 2722:024A       _Hdr_Free
 2722:024C       _Do_Debug
 2722:024E       _Batch_Mode
 2722:0250       _Zoom_Windows
 2722:0252       _E_Type
 2722:0254       _Old_E_Type
 2722:0256       _Reg_Search
 2722:0258       _Control_Display
 2722:025A       _Expand_Tabs
 2722:025C       _In_Prompt
 2722:025E       _Down_Type
 2722:0260       _Top_Row
 2722:0262       _Left_Col
 2722:0264       _Zoomed
 2722:0266       _Term_Type
 2722:0268       _Key_Defs
 2722:026A       _Map_Defs
 2722:026C       _Scan_Defs
 2722:026E       _Comb_Defs
 2722:0270       _Top_Func
 2722:0272       _Next_Func
 2722:0274       _His_Line
 2722:0276       _His_Col
 2722:0278       _My_Line
 2722:027A       _Scr_Width
 2722:027C       _Scl_Top
 2722:027E       _Scl_Bottom
 2722:0280       _Scr_Length
 2722:0282       _Not_End
 2722:0284       _Show_Errors
 2722:0286       _Learning
 2722:0288       _Executing
 2722:028A       _Replace_Mode
 2722:028C       _Ex_Debth
 2722:028E       _Lst_Current
 2722:0290       _Def_Direction
 2722:0292       _Tab_Expand
 2722:0294       _Severe_Error
 2722:0296       _Do_Shift
 2722:0298       _Bell_Level
 2722:029A       _Show_Marks
 2722:029C       _Blk_Mode
 2722:029E       _Float_Cursor
 2722:02A0       _Update_Flag
 2722:02A2       _Shifted_Out
 2722:02A4       _Skip
 2722:02A6       _Append_It
 2722:02A8       _Wr_Count
 2722:02AA       _Working_Flag
 2722:02AC       _Free_List
 2722:02AE       _D_Next
 2722:02B0       _M_Next
 2722:02B2       _Lst_Cmd
 2722:02B4       _Toofar
 2722:02B6       _Reservation
 2722:02B8       _File_Arguments
 2722:02BA       _Margin
 2722:02BC       _Requested_Margin
 2722:02BE       _This_Line
 2722:02C2       _Mem_Limit
 2722:02C6       _Word_Wrap
 2722:02CA       _Indent
 2722:02CE       _Left_Margin
 2722:02D2       _Right_Margin
 2722:02D6       _Scr_Shift
 2722:02DA       _My_Col
 2722:02DE       _My_Pos
 2722:04C6       _Write_Protect_Txt
 2722:04CA       _Unknown_Unit_Txt
 2722:04CE       _Drive_N_Ready_Txt
 2722:04D2       _Unknown_Com_Txt
 2722:04D6       _Data_Error_Txt
 2722:04DA       _Bad_Request_Txt
 2722:04DE       _Seek_Error_Txt
 2722:04E2       _Unknown_Media_Txt
 2722:04E6       _Sector_N_Found_Txt
 2722:04EA       _No_Paper_Txt
 2722:04EE       _Write_Fault_Txt
 2722:04F2       _Read_Fault_Txt
 2722:04F6       _General_Txt
 2722:04FA       _Dos_Error_Txt
 2722:04FE       _Crit_Retry_Txt
 2722:0502       _Crit_Fail_Txt
 2722:0506       _January_Txt
 2722:050A       _February_Txt
 2722:050E       _March_Txt
 2722:0512       _April_Txt
 2722:0516       _May_Txt
 2722:051A       _June_Txt
 2722:051E       _July_Txt
 2722:0522       _August_Txt
 2722:0526       _September_Txt
 2722:052A       _October_Txt
 2722:052E       _November_Txt
 2722:0532       _December_Txt
 2722:0536       _Illegal_Char_Txt
 2722:053A       _Writing_Ruler_Txt
 2722:053E       _Left_Margin_Txt
 2722:0542       _Word_Wrap_Txt
 2722:0546       _Right_Margin_Txt
 2722:054A       _No_Right_Margin_Txt
 2722:054E       _Empty_Line_Txt
 2722:0552       _No_Command_Txt
 2722:0556       _No_Compec_Txt
 2722:055A       _No_Spawn_Txt
 2722:055E       _Return_To_Sedt_Txt
 2722:0562       _Spawn_Error_Txt
 2722:0566       _No_Stdout_Txt
 2722:056A       _No_Stderr_Txt
 2722:056E       _Not_Search_Txt
 2722:0572       _No_Print_Txt
 2722:0576       _Txt_Printing
 2722:057A       _Abort_Print_Txt
 2722:057E       _Command_File_Txt
 2722:0582       _Block_Append_Txt
 2722:0586       _Paste_File_Txt
 2722:058A       _Paste_Create_Txt
 2722:058E       _Already_Learning_Txt
 2722:0592       _Null_String_Txt
 2722:0596       _Ruler_Syntax_Txt
 2722:059A       _Key_Create_Txt
 2722:059E       _Learn_Key_Txt
 2722:05A2       _No_Number_Txt
 2722:05A6       _No_Sel_Txt
 2722:05AA       _No_Mark_Txt
 2722:05AE       _Last_Mark_Txt
 2722:05B2       _No_Match_Txt
 2722:05B6       _Missing_Match_Txt
 2722:05BA       _Edit_Region_End_Txt
 2722:05BE       _Buffer_End_Txt
 2722:05C2       _Edit_Region_Begin_Txt
 2722:05C6       _Buffer_Beginning_Txt
 2722:05CA       _Bad_Entity_Txt
 2722:05CE       _No_Buffer_Txt
 2722:05D2       _To_Deep_Ex_Txt
 2722:05D6       _Replace_This_Txt
 2722:05DA       _No_Stat_Txt
 2722:05DE       _File_Reserved_Txt
 2722:05E2       _Out_File_Reserved_Txt
 2722:05E6       _No_Protection_Change_Txt
 2722:05EA       _Reserved_Txt
 2722:05EE       _Group_Txt
 2722:05F2       _Other_Txt
 2722:05F6       _No_Reset_Txt
 2722:05FA       _Reset_Txt
 2722:05FE       _Not_Implemented_Txt
 2722:0602       _Get_File_Txt
 2722:0606       _Get_Char_Txt
 2722:060A       _Get_Line_Txt
 2722:060E       _Get_Buf_Txt
 2722:0612       _Not_Enough_Memory_Txt
 2722:0616       _Txt_Auto_Warn
 2722:061A       _Unsupported_Term_Txt
 2722:061E       _Txt_Got_Auto
 2722:0622       _Unassigned_Txt
 2722:0626       _Txt_Zoomed_Error
 2722:062A       _Menu_Command_Txt
 2722:062E       _Menu_Move_Txt
 2722:0632       _Menu_Advance_Txt
 2722:0636       _Menu_Backup_Txt
 2722:063A       _Menu_Curs_Bottom_Txt
 2722:063E       _Menu_Abs_Char
 2722:0642       _Menu_Ask_Abs_Char
 2722:0646       _Menu_Abs_Line
 2722:064A       _Menu_Ask_Abs_Line
 2722:064E       _Menu_Top
 2722:0652       _Menu_Match_Bracket
 2722:0656       _Menu_Bottom
 2722:065A       _Menu_Line_End
 2722:065E       _Menu_Ask_Line_End
 2722:0662       _Menu_Char
 2722:0666       _Menu_Ask_Char
 2722:066A       _Menu_Find
 2722:066E       _Menu_Ask_Find
 2722:0672       _Menu_Line
 2722:0676       _Menu_Ask_Line
 2722:067A       _Menu_Get_Mark
 2722:067E       _Menu_Ask_Mark
 2722:0682       _Menu_Find_Next
 2722:0686       _Menu_Ask_Find_Next
 2722:068A       _Menu_Page
 2722:068E       _Menu_Ask_Page
 2722:0692       _Menu_Par
 2722:0696       _Menu_Ask_Par
 2722:069A       _Menu_Screen
 2722:069E       _Menu_Ask_Screen
 2722:06A2       _Menu_Sentence
 2722:06A6       _Menu_Ask_Sentence
 2722:06AA       _Menu_Sel_Range
 2722:06AE       _Menu_Vertical
 2722:06B2       _Menu_Ask_Vertical
 2722:06B6       _Menu_Word
 2722:06BA       _Menu_Ask_Word
 2722:06BE       _Menu_Next_Mark
 2722:06C2       _Menu_Ch_Case
 2722:06C6       _Menu_Ch_Lower
 2722:06CA       _Menu_Ascii
 2722:06CE       _Menu_Check_Point
 2722:06D2       _Menu_Center_Line
 2722:06D6       _Menu_Curs_Middle
 2722:06DA       _Menu_Counter_Add
 2722:06DE       _Menu_Counter_Get
 2722:06E2       _Menu_Counter_Increment
 2722:06E6       _Menu_Counter_Put
 2722:06EA       _Menu_Counter_Set
 2722:06EE       _Menu_Context_Save
 2722:06F2       _Menu_Curs_Top
 2722:06F6       _Menu_Ch_Upper
 2722:06FA       _Menu_Change_Window
 2722:06FE       _Menu_Del_It
 2722:0702       _Menu_Del_Append
 2722:0706       _Menu_Execute_Function
 2722:070A       _Menu_Execute_Key
 2722:070E       _Menu_Err_Level
 2722:0712       _Menu_Cancel_Edit_Region
 2722:0716       _Menu_Set_Edit_Region
 2722:071A       _Menu_Def_Function
 2722:071E       _Menu_File_Edit
 2722:0722       _Menu_File_Get
 2722:0726       _Menu_Font_Larger
 2722:072A       _Menu_Font_Smaller
 2722:072E       _Menu_File_Save
 2722:0732       _Menu_Fill
 2722:0736       _Menu_File_Write
 2722:073A       _Menu_File_Execute
 2722:073E       _Menu_Get_Append
 2722:0742       _Menu_Get
 2722:0746       _Menu_Get_Ruler
 2722:074A       _Menu_Help
 2722:074E       _Menu_Insert
 2722:0752       _Menu_Def_Key_Alpha
 2722:0756       _Menu_Def_Key_Function
 2722:075A       _Menu_Def_Key_G_Alpha
 2722:075E       _Menu_Def_Key_G_Key
 2722:0762       _Menu_Def_Key_Key
 2722:0766       _Menu_Def_Key_Number
 2722:076A       _Menu_Ind_Decrease
 2722:076E       _Menu_Ind_Increase
 2722:0772       _Menu_Load_Key
 2722:0776       _Menu_Ex_Learn
 2722:077A       _Menu_Load_Learn
 2722:077E       _Menu_End_Learn
 2722:0782       _Menu_Ind_Set
 2722:0786       _Menu_Mark_Pos
 2722:078A       _Menu_A_New_Line
 2722:078E       _Menu_Subs_Next
 2722:0792       _Menu_Window_Used
 2722:0796       _Menu_Window_Changed
 2722:079A       _Menu_Window_Cycle
 2722:079E       _Menu_Window_Not_Used
 2722:07A2       _Menu_Out_Error
 2722:07A6       _Menu_Open_Line
 2722:07AA       _Menu_Out_Message
 2722:07AE       _Menu_Overstrike_Mode
 2722:07B2       _Menu_Other_Window
 2722:07B6       _Menu_Put_Date
 2722:07BA       _Menu_Past_Load
 2722:07BE       _Menu_Pop_Changes
 2722:07C2       _Menu_Print
 2722:07C6       _Menu_Past_Save
 2722:07CA       _Menu_Put_Time
 2722:07CE       _Menu_Push_Changes
 2722:07D2       _Menu_Quit
 2722:07D6       _Menu_Repl
 2722:07DA       _Menu_Redefine_Key
 2722:07DE       _Menu_Refresh
 2722:07E2       _Menu_Ruler
 2722:07E6       _Menu_Remove_Char
 2722:07EA       _Menu_Remove_Help
 2722:07EE       _Menu_Remove_Line
 2722:07F2       _Menu_Remove_Page
 2722:07F6       _Menu_Remove_Par
 2722:07FA       _Menu_Remove_Paste
 2722:07FE       _Menu_Remove_Search
 2722:0802       _Menu_Remove_Sent
 2722:0806       _Menu_Remove_Subs
 2722:080A       _Menu_Remove_Unknown
 2722:080E       _Menu_Remove_Word
 2722:0812       _Menu_Reset
 2722:0816       _Menu_Remove_Tabs
 2722:081A       _Menu_Rul_Load
 2722:081E       _Menu_Rul_Save
 2722:0822       _Menu_Show_Ascii
 2722:0826       _Menu_Save_Keys
 2722:082A       _Menu_Save_Functions
 2722:082E       _Menu_Show_Bcast
 2722:0832       _Menu_Show_Column
 2722:0836       _Menu_Select
 2722:083A       _Menu_Set_Block
 2722:083E       _Menu_Set_Direction
 2722:0842       _Menu_Set_Cursor_Free
 2722:0846       _Menu_Set_Replace
 2722:084A       _Menu_Set_Tab_Expand
 2722:084E       _Menu_Set_Case_Sensitive
 2722:0852       _Menu_Set_Ins_Defs
 2722:0856       _Menu_Shift_In
 2722:085A       _Menu_Sav_Key
 2722:085E       _Menu_Search_Load
 2722:0862       _Menu_Shift_Out
 2722:0866       _Menu_Set_Tabs
 2722:086A       _Menu_Strip_Trailing
 2722:086E       _Menu_Subs
 2722:0872       _Menu_Show_Version
 2722:0876       _Menu_Spawn
 2722:087A       _Menu_Q_Spawn
 2722:087E       _Menu_R_Spawn
 2722:0882       _Menu_Tab
 2722:0886       _Menu_Adj_Tabs
 2722:088A       _Menu_Tog_Block
 2722:088E       _Menu_Tog_Control
 2722:0892       _Menu_Tog_Direction
 2722:0896       _Menu_Cursor_Free_Toggle
 2722:089A       _Menu_Test_Input
 2722:089E       _Menu_Tog_Marks
 2722:08A2       _Menu_Tog_Cursor
 2722:08A6       _Menu_Tog_Ruler
 2722:08AA       _Menu_Shift_Toggle
 2722:08AE       _Menu_Tab_Toggle
 2722:08B2       _Menu_Case_Toggle
 2722:08B6       _Menu_Ins_Defs_Toggle
 2722:08BA       _Menu_Und_Char
 2722:08BE       _Menu_Und_Line
 2722:08C2       _Menu_Undo
 2722:08C6       _Menu_Update_On
 2722:08CA       _Menu_Update_Off
 2722:08CE       _Menu_Und_Pg
 2722:08D2       _Menu_Und_Par
 2722:08D6       _Menu_Upd_Screen
 2722:08DA       _Menu_Und_Sen
 2722:08DE       _Menu_Paste
 2722:08E2       _Menu_Und_Unknown
 2722:08E6       _Menu_Und_Word
 2722:08EA       _Menu_Window_Grow
 2722:08EE       _Menu_Window
 2722:08F2       _Menu_Window_Move
 2722:08F6       _Menu_Window_Shrink
 2722:08FA       _Menu_Exit_Sedt
 2722:08FE       _Menu_Query
 2722:0902       _Menu_Zero
 2722:0906       _Menu_Options
 2722:090A       _Menu_Display
 2722:090E       _Menu_Delete
 2722:0912       _Menu_Formatting
 2722:0916       _Menu_Insertion
 2722:091A       _Menu_Counters
 2722:091E       _Menu_File
 2722:0922       _Grow_Txt
 2722:0926       _Chr_Y
 2722:0927       _Chr_N
 2722:0928       _License_Txt
 2722:092C       _Share_1_Txt
 2722:0930       _Share_2_Txt
 2722:0934       _Share_3_Txt
 2722:0938       _Share_4_Txt
 2722:093C       _Share_5_Txt
 2722:0940       _Share_6_Txt
 2722:224A       _Cc_Mess
 2722:224E       _Unsaved_Txt
 2722:2252       _Txt_Changed_Read_Only
 2722:2256       _Unsaved_Blank_Txt
 2722:225A       _File_Txt
 2722:225E       _Col_Txt
 2722:2262       _Line_Txt
 2722:2266       _Buffer_Txt
 2722:226A       _Col_Pos
 2722:226C       _Col_Arg_Pos
 2722:226E       _Line_Pos
 2722:2270       _Line_Arg_Pos
 2722:2272       _Buffer_Pos
 2722:2274       _Dir_Pos
 2722:2276       _Forward_Txt
 2722:227A       _Reverse_Txt
 2722:227E       _Replace_Pos
 2722:2280       _Replace_Mode_Txt
 2722:2284       _Insert_Mode_Txt
 2722:2288       _Block_Pos
 2722:228A       _Block_Mode_Txt
 2722:228E       _Line_Mode_Txt
 2722:2292       _Tab_Pos
 2722:2294       _Tab_Exp_Txt
 2722:2298       _Tab_Ins_Txt
 2722:229C       _Case_Pos
 2722:229E       _Case_Sen_Txt
 2722:22A2       _Case_Ins_Txt
 2722:22A6       _Reg_Pos
 2722:22A8       _Reg_On_Txt
 2722:22AC       _Reg_Off_Txt
 2722:22B0       _Def_Pos
 2722:22B2       _Def_Ins_Txt
 2722:22B6       _Def_Noins_Txt
 2722:22BA       _Free_Pos
 2722:22BC       _Free_Txt
 2722:22C0       _Nofree_Txt
 2722:22C4       _Shift_Pos
 2722:22C6       _Shift_Arg_Pos
 2722:22C8       _Screen_Shft_Txt
 2722:22CC       _Off_Txt
 2722:22D0       _Learning_Pos
 2722:22D2       _Executing_Txt
 2722:22D6       _Learning_Txt
 2722:22DA       _Mod_Pos
 2722:22DC       _Mod_List_Pos
 2722:22DE       _Modified_Txt
 2722:22E2       _Txt_Screen
 2722:22E6       _Txt_Color
 2722:22EA       _Txt_Mono
 2722:22EE       _Txt_Standard
 2722:22F2       _Txt_Keyboard
 2722:22F6       _Txt_LK250
 2722:22FA       _Txt_New
 2722:22FE       _Txt_Enhanced
 2722:2302       _Txt_Convertible
 2722:2306       _Txt_At
 2722:230A       _Txt_SLT
 2722:230E       _Txt_System
 2722:2312       _Txt_Ibmpc
 2722:2316       _Txt_Ibmxt
 2722:231A       _Txt_Ibmat
 2722:231E       _Txt_Ibmconvertible
 2722:2322       _Txt_Vaxmate
 2722:2326       _Txt_Pc100
 2722:232A       _Txt_Ibmat339
 2722:232E       _Txt_Ibmxt286
 2722:2332       _Txt_Ps250
 2722:2336       _Txt_Ps260
 2722:233A       _Txt_Ibmxtii
 2722:233E       _Txt_Ps230
 2722:2342       _Txt_Ps280
 2722:2346       _Txt_Tandy
 2722:234A       _Txt_Vt100
 2722:234E       _Txt_Vt200
 2722:2352       _Txt_Vt300
 2722:2356       _Txt_Vt52
 2722:235A       _Txt_Vk100
 2722:235E       _Txt_ANSI
 2722:2362       _Txt_tcap
 2722:2366       _Txt_Cursorline
 2722:236A       _Txt_Fixed
 2722:236E       _Txt_Floating
 2722:2372       _Txt_Cursor
 2722:2376       _Txt_Free
 2722:237A       _Txt_Restricted
 2722:237E       _Txt_Journaling
 2722:2382       _Txt_On
 2722:2386       _Txt_Off
 2722:238A       _Txt_Controlz
 2722:238E       _Txt_Backupfile
 2722:2392       _Txt_Return
 2722:2396       _Txt_Screenshift
 2722:239A       _Txt_Ins_Defs
 2722:239E       _Txt_Fontsize
 2722:23A2       _Txt_Maxscroll
 2722:23A6       _Txt_Gold
 2722:23AA       _Txt_Ega43
 2722:23AE       _Txt_Palette
 2722:23B2       _Txt_Video
 2722:23B6       _Txt_Bios
 2722:23BA       _Txt_Direct
 2722:23BE       _Txt_Tabs
 2722:23C2       _Txt_Inserted
 2722:23C6       _Txt_Expanded
 2722:23CA       _Txt_Ruler
 2722:23CE       _Txt_Mapping
 2722:23D2       _Txt_Old
 2722:23D6       _Txt_Edt
 2722:23DA       _Txt_Wps
 2722:23DE       _Txt_Scancode
 2722:23E2       _Txt_Numlock
 2722:23E6       _Txt_Disabled
 2722:23EA       _Txt_Enabled
 2722:23EE       _Txt_Set
 2722:23F2       _Txt_Cleared
 2722:23F6       _Txt_Mode
 2722:23FA       _Txt_Context
 2722:23FE       _Txt_Saved
 2722:2402       _Txt_Forgotten
 2722:2406       _Txt_Check
 2722:240A       _Txt_Column
 2722:240E       _Txt_Displayed
 2722:2412       _Txt_Mouse
 2722:2416       _Txt_Remember
 2722:241A       _Txt_Firmware
 2722:241E       _Txt_Newint16
 2722:2422       _Txt_Oldint16
 2722:2426       _Txt_Autosave
 2722:242A       _Txt_Buffering
 2722:242E       _Txt_Freemem
 2722:2432       _Txt_Nofreemem
 2722:2436       _Txt_EMS
 2722:243A       _Txt_NoEMS
 2722:243E       _Txt_Share
 2722:2442       _Txt_Dialog
 2722:2446       _Txt_Caps_Lock
 2722:244A       _Txt_Normal
 2722:244E       _Txt_Debug
 2722:2452       _Txt_Windows
 2722:2456       _Txt_Zoomed
 2722:245A       _Txt_Overlapped
 2722:245E       _Txt_Searches
 2722:2462       _Txt_Literal
 2722:2466       _Txt_Regular
 2722:246A       _Txt_Terminal
 2722:246E       _Txt_Files
 2722:2472       _Txt_Reservation
 2722:2476       _Txt_Margin
 2722:247A       _Arg_Error_Txt
 2722:247E       _Conf_Synt_Txt
 2722:2482       _Bel_Conf_Synt_Txt
 2722:2486       _Fil_Buff_Txt
 2722:248A       _Txt_Done
 2722:248E       _Severe_Txt
 2722:2492       _Version_Txt
 2722:2496       _Small_Txt
 2722:249A       _Device_Txt
 2722:249E       _Keyboard_Txt
 2722:24A2       _Display_Txt
 2722:24A6       _Color_Txt
 2722:24AA       _Mono_Txt
 2722:24AE       _No_Key_Txt
 2722:24B2       _No_Map_Txt
 2722:24B6       _Copyright_Txt
 2722:24BA       _No_Init_Txt
 2722:24BE       _No_Ruler_Txt
 2722:24C2       _Ill_Ruler_Txt
 2722:24C6       _Txt_Eof
 2722:24CA       _Txt_Bof
 2722:24CE       _Txt_New_File
 2722:24D2       _Txt_Loading
 2722:24D6       _Dir_Load_Txt
 2722:24DA       _Spec_Load_Txt
 2722:24DE       _No_Delimiter_Txt
 2722:24E2       _No_Token_Txt
 2722:24E6       _Illegal_Token_Txt
 2722:24EA       _Txt_Cancelled
 2722:24EE       _Unprogrammed_Txt
 2722:24F2       _Bad_Key_Txt
 2722:24F6       _Bad_Key_Num_Txt
 2722:24FA       _Double_Def_Txt
 2722:24FE       _Buffer_Err_Txt
 2722:2502       _Buffer_Wr_Err_Txt
 2722:2506       _Max_Err_Txt
 2722:250A       _Dsk_Full_Err_Txt
 2722:250E       _Txt_Working
 2722:2512       _Rel_Bad_Txt
 2722:2516       _No_Memory_Txt
 2722:251A       _Mouse_Toggle_Txt
 2722:251E       _Mouse_Window_Txt
 2722:2522       _No_Termcap_Txt
 2722:2526       _Unrecognized_Terminal_Txt
 2722:252A       _Illegal_Keystroke_Txt
 2722:252E       _Undefined_Escape_Txt
 2722:2532       _Yes_No_Txt
 2722:2536       _No_File_Txt
 2722:253A       _Unsaved_Chng_Txt
 2722:253E       _This_Unsaved_Txt
 2722:2542       _Illegal_Window_Txt
 2722:2546       _Illegal_ASCII_Txt
 2722:254A       _Too_Long_Arg_Txt
 2722:254E       _File_Not_Found_Txt
 2722:2552       _Unsaved_Chng_Sure_Txt
 2722:2556       _Illegal_Mark_Txt
 2722:255A       _Help_Menu_Txt
 2722:255E       _Txt_More
 2722:2562       _Txt_End
 2722:2566       _No_Help_File_Txt
 2722:256A       _Forget_Buffer_Txt
 2722:256E       _Save_Changes_Txt
 2722:2572       _No_Context_Txt
 2722:2576       _Read_Context_Txt
 2722:257A       _Context_Match_Txt
 2722:257E       _Bad_Context_Cursor_Txt
 2722:2582       _No_Output_File_Txt
 2722:2586       _Cannot_Undo_Txt
 2722:258A       _Show_Column_Txt
 2722:258E       _Illegal_Ruler_Txt
 2722:2592       _No_Contxt_Name_Txt
 2722:2596       _Cannot_Create_Context_Txt
 2722:259A       _Learned_Input_Txt
 2722:259E       _Txt_Saving
 2722:25A2       _Cannot_Create_File_Txt
 2722:25A6       _No_Window_Txt
 2722:25AA       _End_Region_Txt
 2722:25AE       _Dir_Save_Txt
 2722:25B2       _Incomplete_Command_Txt
 2722:25B6       _Syntax_Error_Txt
 2722:25BA       _Unknown_Command_Txt
 2722:25BE       _Write_Error_Txt
 2722:25C2       _Block_Sel_Txt
 2722:25C6       _Txt_Read_Only
 2722:25CA       _No_Messages_Txt
 2722:25CE       _Max_Func_Txt
 2722:25D2       _Txt_Bad_Version
 2722:25D6       _Reading_Help_Txt
 2722:25DA       _Gold_Txt
 2722:25DE       _Map_Create_Error
 2722:25E2       _Fun_Create_Error
 2722:25E6       _Ascii_Value_Txt
 2722:25EA       _Col_Ascii_Value_Txt
 2722:25EE       _Bad_Argument_Txt
 2722:25F2       _Bad_Window_Pos_Txt
 2722:25F6       _Last_Not_Search_Txt
 2722:37B4       _Exp
 2722:37B8       _Ent_Tab
 2722:39FA       _Com_Tab
 2722:4434       _Mem_List
 2722:4462       __streams
 2722:45F2       __nfile
 2722:45F4       __openfd
 2722:461C       __fmode
 2722:461E       __notUmask
 2722:462A       __doserrno
 2722:462C       __dosErrorToSV
 2722:46F6       __sys_errlist
 2722:47B6       __sys_nerr
 2722:49D0       __ctype
 2722:4B04       __stklen
 2722:4B06       ___xalloc
 2722:4B0C       __new_handler
 2722:4B20       __8086
 2722:4B22       __atexitcnt
 2722:4B24       __exitbuf
 2722:4B28       __exitfopen
 2722:4B2C       __exitopen
 2722:4B54       __argc
 2722:4B56       __argv
 2722:4B64       __environ
 2722:4BCA       _SWeekday
 2722:4BE6       _LWeekday
 2722:4C02       _SMonth
 2722:4C32       _LMonth
 2722:4C62       _AmPm
 2722:4D9A       __monthDay
 2722:4DB4       __tzname
 2722:4DBC       __timezone
 2722:4DC0       __daylight
 2722:4DCE       ___CPPexceptionList
 2722:4DD2       ___exceptFlags
 2722:4DD4       ___savedDS
 2722:4DD6       ___savedSI
 2722:4DD8       ___terminatePTR
 2722:4DDC       ___unexpectdPTR
 2722:4DE0       ___terminate_DS
 2722:4DE2       ___unexpectd_DS
 2722:4DE4       ___throwFileName
 2722:4DE8       ___throwLineNumber
 2722:4DEA       ___throwExceptionName
 2722:4DEE       ___exceptStaticBuffP
 2722:4DF2       ___exceptMemAllocVars
 2722:4DF6       ___exceptionNameBuff
 2722:4E76       ___ExceptStaticXbuff
 2722:4F08       string::case_sensitive
 2722:4F0A       string::paranoid_check
 2722:4F0C       string::skip_white
 2722:4F0E       string::initial_capac
 2722:4F10       string::resize_inc
 2722:4F12       string::freeboard
 2722:4F6E       __RealCvtVector
 2722:4F70       __ScanTodVector
 2722:4FA0       _Run_From
 2722:4FF0       _Video_Seg
 2722:4FF2       _Save_Caps
 2722:4FF4       _EMS_Handle
 2722:4FF6       _Keyb_Name
 2722:5046       _Keyb_File
 2722:5096       _KBD_Handle
 2722:5098       _DEC_Mode
 2722:509A       _Output
 2722:511E       _Attr
 2722:51A2       _St_Line
 2722:51A4       _St_Col
 2722:51A6       _Zap_Col
 2722:51A8       _Zap_Line
 2722:51AA       _Zap_Count
 2722:51AC       _File_Protection
 2722:5274       _File_Reserved
 2722:533C       _Infile
 2722:5340       _Outfile
 2722:5344       _Map_Ext
 2722:5394       _Lst_Input
 2722:58BC       _Init_T_String
 2722:59BC       _Reset_T_String
 2722:5ABC       _Out_String
 2722:5B3C       _Format_Line
 2722:5BC1       _Init_File
 2722:5C11       _Dsk_Rec
 2722:6412       _Com_Char
 2722:6413       _Com_Arg
 2722:6613       _Rep_Str
 2722:6813       _Find_Str
 2722:6A13       _New_File
 2722:6C13       _Help_File
 2722:6C63       _Help_Levels
 2722:6C6E       _Tabs
 2722:7070       _Hdr_Mods
 2722:7072       _Hdr_Direction
 2722:7074       _Hdr_Learning
 2722:7076       _Justify
 2722:7078       _Hdr_Replace
 2722:707A       _Hdr_Executing
 2722:707C       _Hdr_Xpand
 2722:707E       _Hdr_Shift
 2722:7080       _Hdr_Do_Shift
 2722:7082       _Hdr_Block
 2722:7084       _Return_Value
 2722:7086       _Sub_H
 2722:7088       _Sub_W
 2722:708A       _Auto_Count
 2722:708C       _Auto_Saved
 2722:708E       _Hdr_Case
 2722:7090       _Hdr_Ins_Defs
 2722:7092       _Hdr_Reg
 2722:7094       _List_Files
 2722:7096       _Ent_Char
 2722:7098       _Err_Flag
 2722:709A       _Com_End
 2722:709C       _Save_Stack
 2722:70C4       _Buffer_Stack
 2722:718C       _Buffers
 2722:718E       _Save_Top
 2722:7190       _Save_Left
 2722:7192       _Save_Length
 2722:7194       _Save_Width
 2722:7196       _Window_Ref
 2722:725E       _Max_Length
 2722:7260       _Max_Width
 2722:7262       _Phys_Length
 2722:7264       _Phys_Width
 2722:7266       _Key_Number
 2722:7268       _Map_Index
 2722:726A       _Scl_Regions
 2722:726C       _Scancode
 2722:726E       _Enhanced
 2722:7270       _Scr_Col
 2722:7272       _Lst_Col
 2722:72EC       _Out_Count
 2722:72EE       _Cur_Attributes
 2722:72F0       _His_Attributes
 2722:72F2       _Function
 2722:72F4       _Gold
 2722:72F6       _Err_Display
 2722:72F8       _Ln_Function
 2722:72FA       _Character
 2722:72FC       _Ex_Function
 2722:7310       _Ex_Index
 2722:7324       _Ex_Count
 2722:7338       _Com_Direction
 2722:733A       _Cur_Buffer
 2722:733C       _Rel_First
 2722:733E       _Rel_Last
 2722:7340       _Home
 2722:7342       _Dl_Positions
 2722:7358       _Direction
 2722:735A       _Ent_Direction
 2722:735C       _Cur_Direction
 2722:735E       _Counter_Index
 2722:7360       _Arg_Length
 2722:7362       _At_End
 2722:7364       _In_Help
 2722:7366       _Help_Level
 2722:7368       _Offset
 2722:736A       _This_Cmd
 2722:736C       _What_Kind
 2722:736E       _Any_Changes
 2722:7436       _Read_Only
 2722:74FE       _Hdr_Line
 2722:7502       _Hdr_Lines
 2722:7506       _Hdr_Col
 2722:750A       _Funcs
 2722:8D0A       _Beg_Pos
 2722:8D0E       _End_Pos
 2722:8D12       _Beg_Line
 2722:8D16       _End_Line
 2722:8D1A       _Dl_Pointers
 2722:9092       _Beg_Region
 2722:9096       _End_Region
 2722:909A       _Other_Pos
 2722:909E       _Local_Count
 2722:90A2       _Sel_Col
 2722:90A6       _Points
 2722:924A       _Lst_Char_Move
 2722:924E       _Lst_Line_Move
 2722:9252       _Buf_Lines
 2722:9256       _Count
 2722:925A       _Ent_Count
 2722:925E       _Counter
 2722:92C6       _End_Points
 2722:945A       _Help_Pos
 2722:945E       _Key_Tab
 2722:9462       _Key_Pointer
 2722:9466       _Comb_Tab
 2722:946A       _Scan_Tab
 2722:95EA       _Map_Tab
 2722:A5EA       _Current
 2722:A5EE       _Main_Buffer
 2722:AFD2       _Pad
 2722:B9B6       _Com
 2722:C39A       _Del
 2722:CD7E       _Overflow
 2722:CDD4       _Mouse_Stack
 2722:D776       _Seg_Regs
 2722:D77E       _In_Regs
 2722:D78E       _Out_Regs
 2722:D7B0       __atexittbl
 2722:D830       ___SignalPtr
 2722:D870       __DestructorCountPtr

Program entry point at 0000:0000

